ccopy_reg
_reconstructor
p1
(ctensorflow.contrib.learn.python.learn.preprocessing.text
VocabularyProcessor
p2
c__builtin__
object
p3
NtRp4
(dp5
S'vocabulary_'
p6
g1
(ctensorflow.contrib.learn.python.learn.preprocessing.categorical_vocabulary
CategoricalVocabulary
p7
g3
NtRp8
(dp9
S'_freeze'
p10
I01
sS'_unknown_token'
p11
S'<UNK>'
p12
sS'_support_reverse'
p13
I01
sS'_freq'
p14
ccollections
defaultdict
p15
(c__builtin__
int
p16
tRp17
S'aided'
p18
I3
sS'limited'
p19
I5
sS'suicidal'
p20
I49
sS'personally'
p21
I9
sS'four'
p22
I5
sS'sleep'
p23
I112
sS'hanging'
p24
I7
sS'appetite'
p25
I10
sS'hate'
p26
I134
sS'aggression'
p27
I3
sS'forget'
p28
I11
sS'relationships'
p29
I37
sS'increase'
p30
I3
sS'founder'
p31
I3
sS'30min'
p32
I5
sS'fingernails'
p33
I6
sS'aut'
p34
I6
sS'whatsoever'
p35
I4
sS'under'
p36
I21
sS'sorry'
p37
I15
sS'pride'
p38
I3
sS'worth'
p39
I42
sS'shaving'
p40
I3
sS'risk'
p41
I9
sS'compassion'
p42
I3
sS'pages'
p43
I6
sS'manic'
p44
I5
sS'every'
p45
I88
sS'updates'
p46
I3
sS'affect'
p47
I6
sS'remeber'
p48
I2
sS'psycologist'
p49
I4
sS'school'
p50
I88
sS'internally'
p51
I4
sS'skills'
p52
I7
sS'v255qg'
p53
I2
sS'solution'
p54
I4
sS'phase'
p55
I5
sS'reframe'
p56
I1
sS'cmu'
p57
I3
sS'shows'
p58
I7
sS'ups'
p59
I7
sS'clothes'
p60
I5
sS'enjoy'
p61
I27
sS'chew'
p62
I2
sS'force'
p63
I11
sS'tired'
p64
I98
sS'convo'
p65
I2
sS'lgbt'
p66
I5
sS'hating'
p67
I10
sS'elephantjournal'
p68
I3
sS'talks'
p69
I6
sS'second'
p70
I5
sS'cbtftf2ii7u'
p71
I2
sS'even'
p72
I179
sS'relieving'
p73
I1
sS'preferences'
p74
I1
sS'decisions'
p75
I19
sS'beaten'
p76
I4
sS'near'
p77
I7
sS'malleable'
p78
I3
sS'bipolar'
p79
I21
sS'1371'
p80
I1
sS'new'
p81
I89
sS'tips'
p82
I110
sS'ever'
p83
I123
sS'shocks'
p84
I3
sS'unmotivated'
p85
I11
sS'toorgona8'
p86
I1
sS'healthily'
p87
I4
sS'whose'
p88
I3
sS'herb'
p89
I3
sS'never'
p90
I147
sS'wrapping'
p91
I5
sS'toorgona7'
p92
I6
sS'here'
p93
I56
sS'remarried'
p94
I10
sS'met'
p95
I6
sS'pnvww73'
p96
I2
sS'humility'
p97
I3
sS'active'
p98
I7
sS'path'
p99
I4
sS'balance'
p100
I11
sS'daughter'
p101
I15
sS'uplifting'
p102
I3
sS'forum'
p103
I3
sS'study'
p104
I1
sS'changed'
p105
I5
sS'affective'
p106
I3
sS'ignoring'
p107
I10
sS'akk'
p108
I5
sS'jogging'
p109
I5
sS'smoke'
p110
I8
sS'stressed'
p111
I32
sS'c41baa42b56d'
p112
I3
sS"i'm"
p113
I1158
sS'galbut'
p114
I1
sS'changes'
p115
I15
sS'9i'
p116
I3
sS'unbeautiful'
p117
I6
sS'campaign'
p118
I1
sS'feelings'
p119
I53
sS'insta'
p120
I6
sS'opportunities'
p121
I7
sS'counts'
p122
I3
sS'forums'
p123
I4
sS'cheating'
p124
I11
sS'bjmzmp648'
p125
I3
sS'would'
p126
I137
sS'insecurity'
p127
I5
sS'hospital'
p128
I29
sS'motivate'
p129
I8
sS'overshadow'
p130
I5
sS'negative'
p131
I24
sS'backing'
p132
I5
sS'call'
p133
I7
sS'calm'
p134
I23
sS'recommend'
p135
I16
sS'survive'
p136
I4
sS'until'
p137
I10
sS'breathe'
p138
I23
sS'females'
p139
I1
sS'posting'
p140
I3
sS'holy'
p141
I4
sS'relax'
p142
I35
sS'brings'
p143
I8
sS'haha'
p144
I3
sS'reign'
p145
I4
sS'hurt'
p146
I37
sS'grief'
p147
I5
sS'phone'
p148
I6
sS'warm'
p149
I3
sS'adult'
p150
I11
sS'breaths'
p151
I3
sS'siblings'
p152
I4
sS'midst'
p153
I6
sS'hold'
p154
I6
sS'immature'
p155
I2
sS'must'
p156
I17
sS'me'
p157
I1121
sS'join'
p158
I3
sS'room'
p159
I7
sS'pursue'
p160
I8
sS'work'
p161
I118
sS'ik'
p162
I10
sS'mt'
p163
I3
sS'ms'
p164
I7
sS'concepts'
p165
I2
sS'experts'
p166
I2
sS'my'
p167
I1839
sS'mx'
p168
I1
sS'addictive'
p169
I2
sS'rosetree'
p170
I4
sS'give'
p171
I61
sS'laughs'
p172
I3
sS'stressing'
p173
I10
sS'gusto'
p174
I5
sS'foods'
p175
I2
sS'want'
p176
I443
sS'counseling'
p177
I8
sS'mocwithtiffany'
p178
I2
sS'keep'
p179
I154
sS'destigmatize'
p180
I3
sS'absolute'
p181
I2
sS'grrreat'
p182
I9
sS'autonomy'
p183
I1
sS'end'
p184
I41
sS'recovery'
p185
I6
sS'worldview'
p186
I1
sS'turn'
p187
I18
sS'provide'
p188
I6
sS'1pm'
p189
I2
sS'ripping'
p190
I4
sS'how'
p191
I575
sS'amazing'
p192
I30
sS'accusations'
p193
I4
sS'gate'
p194
I3
sS'massive'
p195
I2
sS'badly'
p196
I13
sS"'healing"
p197
I4
sS'mess'
p198
I18
sS'insecure'
p199
I6
sS'after'
p200
I110
sS'vicious'
p201
I4
sS'egos'
p202
I8
sS'jumping'
p203
I5
sS'lay'
p204
I11
sS'meaningful'
p205
I3
sS'40min'
p206
I5
sS'types'
p207
I3
sS'crap'
p208
I5
sS'attempt'
p209
I4
sS'third'
p210
I6
sS'appreciate'
p211
I4
sS'lost'
p212
I70
sS'cigarettes'
p213
I1
sS'ultimate'
p214
I5
sS'keeps'
p215
I33
sS'uninsured'
p216
I6
sS'balancing'
p217
I4
sS'athletes'
p218
I3
sS'order'
p219
I14
sS'feedback'
p220
I6
sS'office'
p221
I3
sS'dreamed'
p222
I3
sS'over'
p223
I90
sS'zen'
p224
I3
sS'satisfied'
p225
I7
sS'rewarded'
p226
I5
sS'journals'
p227
I1
sS'bubbles'
p228
I1
sS'before'
p229
I35
sS'jace'
p230
I2
sS'fit'
p231
I5
sS'personal'
p232
I7
sS'fix'
p233
I10
sS'expectations'
p234
I8
sS'writing'
p235
I3
sS'better'
p236
I134
sS'differently'
p237
I4
sS'acupuncture'
p238
I10
sS'weeks'
p239
I36
sS'carton'
p240
I5
sS'easier'
p241
I17
sS'overcome'
p242
I9
sS'then'
p243
I68
sS'them'
p244
I245
sS'enneagram'
p245
I3
sS'weakness'
p246
I13
sS'workout'
p247
I5
sS'safe'
p248
I12
sS'bouts'
p249
I3
sS'break'
p250
I69
sS'roommate'
p251
I5
sS'therapy'
p252
I26
sS'effects'
p253
I7
sS'they'
p254
I212
sS'schools'
p255
I3
sS'one'
p256
I249
sS'phobias'
p257
I13
sS'arrested'
p258
I5
sS'explode'
p259
I3
sS'each'
p260
I11
sS'addicted'
p261
I14
sS'went'
p262
I46
sS'side'
p263
I16
sS'luck'
p264
I15
sS'independent'
p265
I6
sS'laying'
p266
I5
sS'husband'
p267
I6
sS'wednesday'
p268
I7
sS'celebrating'
p269
I5
sS'juggling'
p270
I2
sS'hosted'
p271
I3
sS'ward'
p272
I3
sS'saturday'
p273
I9
sS'psyl4yl'
p274
I2
sS'goo'
p275
I1
sS'trending'
p276
I4
sS'overcame'
p277
I8
sS'god'
p278
I9
sS'crucial'
p279
I3
sS'content'
p280
I17
sS'laid'
p281
I5
sS'adapt'
p282
I3
sS'reader'
p283
I4
sS'medicine'
p284
I6
sS'got'
p285
I63
sS'frequently'
p286
I19
sS'forth'
p287
I5
sS'instigate'
p288
I5
sS'disagreements'
p289
I10
sS'sheep'
p290
I8
sS'tedspread'
p291
I1
sS'turning'
p292
I16
sS'barrier'
p293
I1
sS'resume'
p294
I5
sS'rail'
p295
I5
sS'eternal'
p296
I4
sS'given'
p297
I21
sS'free'
p298
I16
sS'campaigns'
p299
I2
sS'appointments'
p300
I7
sS'management'
p301
I3
sS'icky'
p302
I3
sS'struggle'
p303
I42
sS'boosting'
p304
I3
sS'wanted'
p305
I15
sS'soundcloud'
p306
I3
sS'reinvent'
p307
I2
sS'grouches'
p308
I3
sS'created'
p309
I9
sS'viam'
p310
I3
sS'starts'
p311
I7
sS'messages'
p312
I7
sS'days'
p313
I98
sS'heck'
p314
I1
sS'hopeless'
p315
I12
sS'uses'
p316
I4
sS'9pm'
p317
I9
sS'loud'
p318
I5
sS'sheez'
p319
I5
sS'already'
p320
I53
sS'grade'
p321
I4
sS'meet'
p322
I2
sS'meth'
p323
I3
sS'primary'
p324
I1
sS'hearing'
p325
I14
sS'fantasy'
p326
I2
sS'another'
p327
I48
sS'sober'
p328
I11
sS'thich'
p329
I2
sS'clarity'
p330
I3
sS'dysfunction'
p331
I2
sS'service'
p332
I5
sS'top'
p333
I8
sS'defaulting'
p334
I4
sS'tov'
p335
I3
sS'twisted'
p336
I2
sS'heights'
p337
I3
sS'needed'
p338
I29
sS'gettng'
p339
I4
sS'too'
p340
I86
sS'legs'
p341
I3
sS'carrey'
p342
I4
sS'listen'
p343
I13
sS'centered'
p344
I4
sS'gym'
p345
I5
sS'naht'
p346
I2
sS'took'
p347
I18
sS'rejected'
p348
I5
sS'wisdom'
p349
I3
sS'hadnt'
p350
I4
sS'abandoning'
p351
I7
sS'distance'
p352
I11
sS'anxiety'
p353
I155
sS'brainpickings'
p354
I1
sS'showed'
p355
I2
sS'programs'
p356
I2
sS'tree'
p357
I4
sS'likely'
p358
I1
sS'shower'
p359
I4
sS'matter'
p360
I33
sS'classes'
p361
I6
sS'guilt'
p362
I18
sS'friend'
p363
I94
sS'feeling'
p364
I302
sS'solely'
p365
I8
sS'bridge'
p366
I13
sS'youre'
p367
I2
sS'sees'
p368
I5
sS'ran'
p369
I2
sS'mind'
p370
I59
sS'mine'
p371
I16
sS'anybody'
p372
I38
sS'talking'
p373
I27
sS'seem'
p374
I43
sS'mins'
p375
I5
sS'seek'
p376
I9
sS'tells'
p377
I4
sS'forced'
p378
I5
sS'strength'
p379
I8
sS'relapse'
p380
I1
sS'cope'
p381
I25
sS'isolated'
p382
I9
sS'fitting'
p383
I3
sS'laughed'
p384
I13
sS'worsening'
p385
I6
sS'conducive'
p386
I3
sS'blue'
p387
I4
sS'nobody'
p388
I59
sS'though'
p389
I30
sS'object'
p390
I4
sS'disjointed'
p391
I4
sS'regular'
p392
I5
sS'mouth'
p393
I5
sS'entry'
p394
I2
sS'za7brl5'
p395
I4
sS'hide'
p396
I8
sS'sub'
p397
I6
sS"me''"
p398
I4
sS'peers'
p399
I8
sS'episode'
p400
I18
sS'environmental'
p401
I1
sS'alarm'
p402
I2
sS'm'
I15
sS'psychology'
p403
I3
sS'definitely'
p404
I11
sS'aunt'
p405
I8
sS'gratefulness'
p406
I3
sS'337'
p407
I3
sS'z0zrkbcnfxw'
p408
I4
sS'scream'
p409
I23
sS'came'
p410
I18
sS'saying'
p411
I31
sS'opinions'
p412
I1
sS'is15'
p413
I4
sS'random'
p414
I5
sS'ending'
p415
I12
sS'attempts'
p416
I4
sS'radio'
p417
I4
sS'negates'
p418
I1
sS'participate'
p419
I3
sS'tempted'
p420
I10
sS'availability'
p421
I4
sS'fixating'
p422
I1
sS'powering'
p423
I3
sS'pick'
p424
I10
sS'busy'
p425
I16
sS'precedence'
p426
I2
sS'weekends'
p427
I14
sS'minnesota'
p428
I9
sS'appreciated'
p429
I5
sS'touched'
p430
I4
sS'stabbing'
p431
I4
sS'pursuing'
p432
I6
sS'oct'
p433
I2
sS'personality'
p434
I6
sS'do'
p435
I1476
sS'compounded'
p436
I3
sS'de'
p437
I2
sS'watch'
p438
I23
sS'psychiatric'
p439
I3
sS'pocket'
p440
I5
sS'meditate'
p441
I8
sS'report'
p442
I1
sS'nasty'
p443
I11
sS'dr'
p444
I8
sS'nurse'
p445
I4
sS'bar'
p446
I3
sS'autistic'
p447
I15
sS'officially'
p448
I4
sS'translating'
p449
I5
sS'hospitalize'
p450
I4
sS'inportant'
p451
I4
sS'public'
p452
I14
sS'twice'
p453
I11
sS'bad'
p454
I171
sS'release'
p455
I8
sS'told'
p456
I50
sS'ruins'
p457
I3
sS'bother'
p458
I5
sS'respond'
p459
I3
sS'unworthy'
p460
I6
sS'victim'
p461
I6
sS'fair'
p462
I8
sS'med'
p463
I5
sS'sensitivity'
p464
I1
sS'roadmap'
p465
I5
sS'resist'
p466
I12
sS'decided'
p467
I16
sS'fail'
p468
I9
sS'miserable'
p469
I18
sS'depressive'
p470
I21
sS'bleh'
p471
I1
sS'best'
p472
I92
sS'rxisk'
p473
I3
sS'said'
p474
I53
sS'06'
p475
I3
sS'cleansing'
p476
I5
sS'temptation'
p477
I7
sS'lots'
p478
I13
sS'away'
p479
I55
sS'09'
p480
I3
sS'rings'
p481
I13
sS'continually'
p482
I4
sS'pressures'
p483
I10
sS'r'
I2
sS'irl'
p484
I5
sS'finger'
p485
I3
sS'hopefully'
p486
I9
sS'approach'
p487
I15
sS'lethargic'
p488
I5
sS'qbzv9hiobi4'
p489
I3
sS'we'
p490
I165
sS'terms'
p491
I8
sS'wo'
p492
I72
sS'wean'
p493
I13
sS'fruits'
p494
I3
sS'weak'
p495
I15
sS'however'
p496
I19
sS'boss'
p497
I2
sS'wear'
p498
I8
sS'extent'
p499
I12
sS'wth'
p500
I4
sS'news'
p501
I4
sS'picking'
p502
I4
sS'reacquaints'
p503
I4
sS'improve'
p504
I18
sS'pity'
p505
I5
sS'socialize'
p506
I5
sS'outcome'
p507
I5
sS'sacrificing'
p508
I10
sS'cow'
p509
I4
sS'triggers'
p510
I4
sS'fault'
p511
I25
sS'ill'
p512
I18
sS'coz'
p513
I7
sS'against'
p514
I4
sS'com'
p515
I125
sS'asked'
p516
I27
sS"'standardized"
p517
I3
sS'tough'
p518
I37
sS'confide'
p519
I8
sS'unicorns'
p520
I1
sS'tons'
p521
I3
sS'trust'
p522
I55
sS'speak'
p523
I3
sS'asks'
p524
I7
sS'binge'
p525
I2
sS'three'
p526
I12
sS'been'
p527
I533
sS'quickly'
p528
I5
sS'confident'
p529
I15
sS'much'
p530
I210
sS'detrimental'
p531
I5
sS'interest'
p532
I13
sS'basic'
p533
I4
sS'warmth'
p534
I3
sS'leech'
p535
I4
sS'threw'
p536
I5
sS'website'
p537
I6
sS'life'
p538
I395
sS'hospitalization'
p539
I5
sS'relaxing'
p540
I2
sS'eastern'
p541
I2
sS'drugs'
p542
I29
sS'sooooo'
p543
I4
sS'dweck'
p544
I1
sS'child'
p545
I17
sS'catch'
p546
I12
sS'worked'
p547
I18
sS'spin'
p548
I5
sS'chill'
p549
I3
sS'inhibit'
p550
I7
sS'gracias'
p551
I3
sS'contemplated'
p552
I5
sS'prestigious'
p553
I4
sS'n'
I3
sS'lesser'
p554
I3
sS'ugly'
p555
I14
sS'evening'
p556
I13
sS'suppose'
p557
I10
sS'hates'
p558
I10
sS'applies'
p559
I3
sS'aid'
p560
I2
sS'voice'
p561
I14
sS'anchor'
p562
I4
sS'mistake'
p563
I5
sS'remembering'
p564
I1
sS'vulnerability'
p565
I1
sS'existence'
p566
I5
sS'discredits'
p567
I1
sS'is'
p568
I970
sS'it'
p569
I1735
sS'defeated'
p570
I3
sS'iv'
p571
I5
sS'shame'
p572
I13
sS'cant'
p573
I31
sS'dizzy'
p574
I3
sS'im'
p575
I77
sS'creepy'
p576
I8
sS'in'
p577
I918
sS'ie'
p578
I5
sS'id'
p579
I1
sS'if'
p580
I382
sS'itunes'
p581
I3
sS'thingy'
p582
I3
sS'waitbutwhy'
p583
I1
sS'nike'
p584
I3
sS'things'
p585
I195
sS'make'
p586
I135
sS'sinusitis'
p587
I3
sS'potentially'
p588
I6
sS'several'
p589
I24
sS'mayo'
p590
I2
sS'wheel'
p591
I3
sS'fairly'
p592
I4
sS'hanh'
p593
I2
sS'pubh'
p594
I2
sS'hang'
p595
I26
sS'hand'
p596
I8
sS'cessation'
p597
I5
sS'candidly'
p598
I2
sS'preachy'
p599
I3
sS'smarter'
p600
I3
sS'opportunity'
p601
I21
sS'aka'
p602
I2
sS'tune'
p603
I6
sS'cycle'
p604
I17
sS'kept'
p605
I15
sS'maximizing'
p606
I3
sS'shitty'
p607
I5
sS'stimuli'
p608
I5
sS'failing'
p609
I4
sS'smokes'
p610
I1
sS'game'
p611
I8
sS'options'
p612
I6
sS'contact'
p613
I3
sS'greatest'
p614
I4
sS'mother'
p615
I20
sS'hearts'
p616
I4
sS'the'
p617
I1487
sS'smoked'
p618
I1
sS'yours'
p619
I1
sS'left'
p620
I23
sS'seasonal'
p621
I3
sS'criticism'
p622
I1
sS'just'
p623
I726
sS'laptop'
p624
I3
sS'sleepy'
p625
I4
sS'unfair'
p626
I3
sS'vday7swnovc'
p627
I2
sS'overcoming'
p628
I4
sS'grades'
p629
I17
sS'financially'
p630
I5
sS'psych'
p631
I7
sS'thanks'
p632
I16
sS'human'
p633
I18
sS'yet'
p634
I28
sS'succeeding'
p635
I2
sS'depicts'
p636
I4
sS'nudge'
p637
I3
sS'ease'
p638
I12
sS'had'
p639
I169
sS'passive'
p640
I12
sS'shout'
p641
I5
sS'advanced'
p642
I3
sS'easy'
p643
I25
sS'har'
p644
I4
sS'has'
p645
I211
sS'gave'
p646
I12
sS'solitude'
p647
I4
sS'breaks'
p648
I4
sS'progressed'
p649
I4
sS'possible'
p650
I23
sS'cliche'
p651
I3
sS'picasso'
p652
I3
sS'apart'
p653
I15
sS'replace'
p654
I3
sS'dreams'
p655
I18
sS'cognitive'
p656
I4
sS'desire'
p657
I31
sS'concious'
p658
I4
sS'mindlessness'
p659
I1
sS'shxt'
p660
I5
sS'night'
p661
I110
sS'hung'
p662
I3
sS'toughest'
p663
I5
sS'sometime'
p664
I3
sS'www'
p665
I61
sS'right'
p666
I106
sS'old'
p667
I29
sS'crowd'
p668
I2
sS'people'
p669
I364
sS'marcandangel'
p670
I1
sS'proudly'
p671
I5
sS'begin'
p672
I6
sS'born'
p673
I5
sS'donald'
p674
I5
sS'philome'
p675
I2
sS'election'
p676
I4
sS'escape'
p677
I13
sS'dear'
p678
I1
sS'pain'
p679
I47
sS'ick'
p680
I7
sS'for'
p681
I947
sS'bottom'
p682
I10
sS'fantasizing'
p683
I3
sS'opposite'
p684
I3
sS'ice'
p685
I4
sS'creative'
p686
I3
sS"'i'"
p687
I4
sS'everything'
p688
I84
sS'icy'
p689
I13
sS'asking'
p690
I15
sS'confusion'
p691
I10
sS'umn'
p692
I7
sS'christmas'
p693
I5
sS'heartbroken'
p694
I10
sS'marketing'
p695
I2
sS'confrontation'
p696
I5
sS'defensive'
p697
I11
sS'losing'
p698
I17
sS'eye'
p699
I3
sS'post'
p700
I13
sS'super'
p701
I64
sS'herpes'
p702
I5
sS'spoke'
p703
I3
sS'plos'
p704
I1
sS'rattled'
p705
I8
sS'attacks'
p706
I15
sS'dollars'
p707
I5
sS'months'
p708
I75
sS'surround'
p709
I12
sS'essential'
p710
I1
sS"'if"
p711
I3
sS'magazine'
p712
I3
sS'plus'
p713
I10
sS'afternoon'
p714
I4
sS'stoked'
p715
I5
sS'efforts'
p716
I4
sS'twitch'
p717
I4
sS'slightly'
p718
I4
sS'book'
p719
I13
sS'bath'
p720
I5
sS'whats'
p721
I8
sS'lied'
p722
I10
sS'facility'
p723
I5
sS'wasting'
p724
I3
sS'maxwell'
p725
I3
sS'beneficial'
p726
I1
sS'arms'
p727
I7
sS'down'
p728
I102
sS'thankful'
p729
I4
sS'sos'
p730
I3
sS'accomplishments'
p731
I1
sS'honored'
p732
I3
sS'nuisance'
p733
I5
sS'methods'
p734
I2
sS'existed'
p735
I5
sS'deal'
p736
I41
sS'weathered'
p737
I3
sS'amazingly'
p738
I7
sS'support'
p739
I37
sS'constantly'
p740
I14
sS'available'
p741
I6
sS'fight'
p742
I16
sS'stuck'
p743
I17
sS'anderson'
p744
I3
sS'fought'
p745
I8
sS'wordpress'
p746
I1
sS'way'
p747
I206
sS'music'
p748
I15
sS'was'
p749
I352
sS'happy'
p750
I89
sS'head'
p751
I33
sS'medium'
p752
I22
sS'form'
p753
I8
sS'heal'
p754
I9
sS'somehow'
p755
I5
sS'failure'
p756
I12
sS'heat'
p757
I2
sS'hear'
p758
I15
sS'reinventing'
p759
I2
sS'patient'
p760
I9
sS'true'
p761
I10
sS'friday'
p762
I3
sS'martial'
p763
I3
sS'negativity'
p764
I3
sS'inside'
p765
I6
sS'attached'
p766
I4
sS'devices'
p767
I5
sS'tell'
p768
I100
sS'crystal'
p769
I4
sS'emotional'
p770
I18
sS'panicky'
p771
I5
sS'150'
p772
I13
sS'medication'
p773
I51
sS'154'
p774
I3
sS'justca'
p775
I4
sS'abstract'
p776
I3
sS'proven'
p777
I3
sS'evidence'
p778
I5
sS"''"
p779
I8
sS'nytcore'
p780
I13
sS'exist'
p781
I7
sS'prayer'
p782
I8
sS'paperwork'
p783
I10
sS'awhile'
p784
I3
sS'annoying'
p785
I3
sS'check'
p786
I27
sS'shit'
p787
I16
sS'physical'
p788
I4
sS'radically'
p789
I1
sS'dying'
p790
I9
sS'no'
p791
I199
sS'tit'
p792
I3
sS'id1097918480'
p793
I2
sS'when'
p794
I360
sS'reality'
p795
I5
sS'setting'
p796
I3
sS'role'
p797
I1
sS'holding'
p798
I5
sS'digital'
p799
I3
sS'test'
p800
I8
sS'transgender'
p801
I9
sS'becuase'
p802
I5
sS'roll'
p803
I4
sS"'s"
p804
I733
sS'brothers'
p805
I2
sS'conditioned'
p806
I4
sS'felt'
p807
I65
sS'outreach'
p808
I2
sS"'d"
p809
I50
sS'scores'
p810
I11
sS'snooze'
p811
I2
sS'aware'
p812
I4
sS'weekend'
p813
I24
sS'longer'
p814
I18
sS'assume'
p815
I6
sS'dinkytown'
p816
I2
sS'daily'
p817
I20
sS'time'
p818
I262
sS'push'
p819
I16
sS'broke'
p820
I10
sS'skip'
p821
I3
sS'excellent'
p822
I2
sS'focus'
p823
I33
sS'invent'
p824
I2
sS'mild'
p825
I6
sS'comments'
p826
I5
sS'grateful'
p827
I27
sS'skiing'
p828
I3
sS'hole'
p829
I5
sS'row'
p830
I1
sS'contributing'
p831
I2
sS'suicide'
p832
I40
sS'disorders'
p833
I7
sS'burnout'
p834
I5
sS'technique'
p835
I3
sS'contemplating'
p836
I5
sS'passage'
p837
I3
sS'environment'
p838
I4
sS'veg'
p839
I3
sS'finally'
p840
I38
sS'permanently'
p841
I5
sS'atrophied'
p842
I5
sS'reminders'
p843
I3
sS'sizing'
p844
I13
sS'downloading'
p845
I4
sS'altucher'
p846
I4
sS'keeping'
p847
I8
sS'unfamiliar'
p848
I5
sS'choice'
p849
I4
sS'pablo'
p850
I3
sS'congregation'
p851
I2
sS'anonymous'
p852
I5
sS'cook'
p853
I3
sS'locked'
p854
I2
sS'trouble'
p855
I28
sS'exact'
p856
I3
sS'minute'
p857
I7
sS'cool'
p858
I21
sS'perceived'
p859
I2
sS'beating'
p860
I5
sS'level'
p861
I10
sS'did'
p862
I93
sS'turns'
p863
I17
sS'socials'
p864
I2
sS'posts'
p865
I7
sS'brother'
p866
I4
sS'standards'
p867
I9
sS'leave'
p868
I16
sS'soooo'
p869
I3
sS'therapist'
p870
I56
sS'quick'
p871
I4
sS'guy'
p872
I24
sS'round'
p873
I4
sS'presumptions'
p874
I2
sS'spiritual'
p875
I4
sS'brave'
p876
I5
sS'says'
p877
I37
sS'fearing'
p878
I4
sS'insignificant'
p879
I10
sS'trend'
p880
I12
sS'dealing'
p881
I10
sS'sign'
p882
I3
sS'affiliation'
p883
I8
sS'cost'
p884
I7
sS'prwo'
p885
I1
sS'eating'
p886
I48
sS'helpless'
p887
I4
sS'fear'
p888
I35
sS"'you'"
p889
I4
sS'irritated'
p890
I5
sS'lfuck'
p891
I3
sS'asylum'
p892
I4
sS'adds'
p893
I4
sS'appear'
p894
I5
sS'730to9pm'
p895
I3
sS'heres'
p896
I4
sS'taxing'
p897
I5
sS'shares'
p898
I5
sS'goes'
p899
I10
sS'shared'
p900
I12
sS'falling'
p901
I14
sS'boost'
p902
I12
sS'filled'
p903
I3
sS'unsure'
p904
I3
sS'sweeter'
p905
I9
sS'heavily'
p906
I1
sS'v'
I10
sS'understanding'
p907
I4
sS'water'
p908
I22
sS'coloring'
p909
I9
sS'address'
p910
I5
sS'alone'
p911
I142
sS'along'
p912
I4
sS'teaches'
p913
I4
sS'change'
p914
I57
sS'box'
p915
I4
sS'boy'
p916
I9
sS'battling'
p917
I8
sS'healthy'
p918
I20
sS'shift'
p919
I6
sS'guilty'
p920
I12
sS'makemondayspositive'
p921
I2
sS'ourself'
p922
I1
sS'accomplished'
p923
I3
sS'chemical'
p924
I1
sS'diagnosed'
p925
I18
sS'usually'
p926
I18
sS'weird'
p927
I30
sS'studies'
p928
I1
sS'pillow'
p929
I5
sS'homecoming'
p930
I4
sS'negatives'
p931
I4
sS'harr'
p932
I2
sS'love'
p933
I118
sS'extra'
p934
I1
sS'prefer'
p935
I4
sS'3800'
p936
I1
sS'logical'
p937
I4
sS'graduated'
p938
I9
sS'logically'
p939
I3
sS'fake'
p940
I7
sS'overthink'
p941
I4
sS'crisis'
p942
I20
sS'sympathetic'
p943
I5
sS'vivid'
p944
I4
sS'working'
p945
I38
sS'prove'
p946
I3
sS'positive'
p947
I19
sS'angry'
p948
I57
sS'visit'
p949
I5
sS'live'
p950
I37
sS'wondering'
p951
I43
sS'prep'
p952
I3
sS'today'
p953
I184
sS'loving'
p954
I4
sS'358874841'
p955
I1
sS'teased'
p956
I3
sS'marbles'
p957
I23
sS'sessions'
p958
I18
sS'afford'
p959
I10
sS'suggestions'
p960
I27
sS'clue'
p961
I6
sS'downtown'
p962
I3
sS'ignorant'
p963
I4
sS'atsume'
p964
I1
sS'effort'
p965
I3
sS'anything'
p966
I95
sS'avoiding'
p967
I5
sS'overloaded'
p968
I4
sS'soul'
p969
I7
sS'believes'
p970
I3
sS'soup'
p971
I5
sS'hardest'
p972
I13
sS'incidents'
p973
I6
sS'can'
p974
I407
sS'following'
p975
I5
sS'making'
p976
I74
sS'repressing'
p977
I8
sS'claim'
p978
I4
sS'crazy'
p979
I40
sS'trump'
p980
I5
sS'figure'
p981
I18
sS'awesome'
p982
I18
sS'confused'
p983
I13
sS'agent'
p984
I3
sS'topic'
p985
I5
sS'heard'
p986
I9
sS'chin'
p987
I4
sS'o'
I12
sS'allowed'
p988
I3
sS'productive'
p989
I11
sS'monitoring'
p990
I4
sS'winter'
p991
I7
sS'fortunately'
p992
I3
sS'discussion'
p993
I10
sS'get'
p994
I327
sS'dinner'
p995
I5
sS'1'
I28
sS'till'
p996
I6
sS'sunday'
p997
I18
sS'pure'
p998
I3
sS'2i2nsvze'
p999
I5
sS'nonstop'
p1000
I3
sS'staying'
p1001
I23
sS'irrational'
p1002
I6
sS'coming'
p1003
I7
sS'information'
p1004
I9
sS'may'
p1005
I40
sS'overall'
p1006
I8
sS'insecurities'
p1007
I6
sS'spot'
p1008
I9
sS'disgusted'
p1009
I5
sS'pathetic'
p1010
I5
sS'crashed'
p1011
I3
sS'birthday'
p1012
I10
sS'mad'
p1013
I14
sS'date'
p1014
I4
sS'such'
p1015
I26
sS'truly'
p1016
I11
sS'guys'
p1017
I29
sS'grow'
p1018
I8
sS'man'
p1019
I9
sS'stress'
p1020
I56
sS'natural'
p1021
I8
sS'awkward'
p1022
I5
sS'whenever'
p1023
I24
sS'maybe'
p1024
I21
sS'sclerosis'
p1025
I5
sS'truley'
p1026
I5
sS'q'
I5
sS'rather'
p1027
I6
sS'so'
p1028
I757
sS'silence'
p1029
I4
sS'kurt'
p1030
I2
sS'pulled'
p1031
I9
sS'talk'
p1032
I132
sS'typical'
p1033
I6
sS'cute'
p1034
I1
sS"help''"
p1035
I4
sS'years'
p1036
I83
sS'stability'
p1037
I2
sS'brain'
p1038
I15
sS'episodes'
p1039
I4
sS'shake'
p1040
I19
sS'statements'
p1041
I8
sS'cold'
p1042
I21
sS'still'
p1043
I125
sS'tendency'
p1044
I4
sS'dreading'
p1045
I2
sS'group'
p1046
I38
sS'thank'
p1047
I10
sS'acknowledge'
p1048
I5
sS'interesting'
p1049
I26
sS'torn'
p1050
I8
sS'hot'
p1051
I4
sS'decreases'
p1052
I1
sS'ideation'
p1053
I4
sS'offers'
p1054
I1
sS'decreased'
p1055
I5
sS'main'
p1056
I3
sS'into'
p1057
I118
sS'instantly'
p1058
I4
sS'non'
p1059
I13
sS'lonely'
p1060
I45
sS'moms'
p1061
I8
sS'devastated'
p1062
I17
sS'lunch'
p1063
I2
sS'touching'
p1064
I8
sS'course'
p1065
I8
sS'1950'
p1066
I4
sS'half'
p1067
I21
sS'not'
p1068
I554
sS'now'
p1069
I287
sS'killed'
p1070
I8
sS'nor'
p1071
I4
sS'wont'
p1072
I3
sS'term'
p1073
I15
sS'name'
p1074
I4
sS'lies'
p1075
I4
sS'nami'
p1076
I14
sS'drop'
p1077
I12
sS'possibilities'
p1078
I2
sS'rock'
p1079
I30
sS'824'
p1080
I1
sS'entirely'
p1081
I6
sS'stahp'
p1082
I3
sS'paraphilia'
p1083
I5
sS'qz'
p1084
I3
sS'unproductive'
p1085
I11
sS'sugars'
p1086
I2
sS'yeah'
p1087
I8
sS'ex'
p1088
I17
sS'entering'
p1089
I1
sS'sexually'
p1090
I8
sS'happen'
p1091
I52
sS'morning'
p1092
I26
sS'salads'
p1093
I3
sS'pills'
p1094
I7
sS'er'
p1095
I10
sS'559c45f4e4b042b0befa27a6'
p1096
I2
sS'living'
p1097
I17
sS'shown'
p1098
I4
sS'accomplish'
p1099
I1
sS'opened'
p1100
I4
sS'space'
p1101
I22
sS'inadequacy'
p1102
I5
sS'looking'
p1103
I38
sS'attracted'
p1104
I4
sS'seriously'
p1105
I7
sS'internet'
p1106
I3
sS'receiving'
p1107
I5
sS'she'
p1108
I184
sS'earlier'
p1109
I3
sS'theory'
p1110
I5
sS'wan'
p1111
I5
sS'quite'
p1112
I20
sS'dig'
p1113
I2
sS'unwanted'
p1114
I5
sS'besides'
p1115
I6
sS'skillfully'
p1116
I10
sS'org'
p1117
I6
sS'card'
p1118
I3
sS'care'
p1119
I91
sS'advance'
p1120
I1
sS'training'
p1121
I6
sS'language'
p1122
I1
sS'teachers'
p1123
I6
sS'dunno'
p1124
I10
sS'wrong'
p1125
I41
sS'honest'
p1126
I10
sS'motion'
p1127
I3
sS'thing'
p1128
I58
sS'place'
p1129
I15
sS'vision'
p1130
I10
sS'philtre'
p1131
I3
sS'1005'
p1132
I2
sS'think'
p1133
I243
sS'1001'
p1134
I2
sS'first'
p1135
I63
sS'emotion'
p1136
I7
sS'saving'
p1137
I4
sS'spoken'
p1138
I2
sS'dalai'
p1139
I4
sS'waves'
p1140
I2
sS'yourself'
p1141
I57
sS'long'
p1142
I55
sS'carry'
p1143
I4
sS'sounds'
p1144
I20
sS'raped'
p1145
I16
sS'open'
p1146
I35
sS'tomorrow'
p1147
I34
sS"'em"
p1148
I8
sS'tingling'
p1149
I2
sS'city'
p1150
I7
sS'little'
p1151
I76
sS'necessarily'
p1152
I2
sS'silent'
p1153
I13
sS'caught'
p1154
I10
sS'lightened'
p1155
I3
sS'yik'
p1156
I2
sS'response'
p1157
I11
sS'anyone'
p1158
I269
sS'2'
I54
sS'terrifying'
p1159
I12
sS'white'
p1160
I4
sS'bits'
p1161
I3
sS'bday'
p1162
I3
sS'speaking'
p1163
I19
sS'gives'
p1164
I7
sS'nutrition'
p1165
I3
sS'eyes'
p1166
I8
sS'hug'
p1167
I5
sS'mostly'
p1168
I7
sS'that'
p1169
I880
sS'hurtful'
p1170
I13
sS'huh'
p1171
I5
sS'released'
p1172
I3
sS'than'
p1173
I60
sS'disequilibrium'
p1174
I6
sS'boyfriend'
p1175
I48
sS'11'
p1176
I16
sS'10'
p1177
I8
sS'13'
p1178
I6
sS'12'
p1179
I8
sS'15'
p1180
I18
sS'effective'
p1181
I2
sS'16'
p1182
I4
sS'depressed'
p1183
I127
sS'18'
p1184
I6
sS'gotta'
p1185
I12
sS'buzzfeed'
p1186
I8
sS'reinforce'
p1187
I5
sS'rehab'
p1188
I3
sS'future'
p1189
I23
sS'were'
p1190
I34
sS'asleep'
p1191
I5
sS'counselor'
p1192
I5
sS'proactive'
p1193
I3
sS'anyways'
p1194
I3
sS'and'
p1195
I3004
sS'addressing'
p1196
I4
sS'illness'
p1197
I70
sS'mindfulness'
p1198
I14
sS'turned'
p1199
I19
sS'sad'
p1200
I69
sS'inpatient'
p1201
I6
sS'say'
p1202
I52
sS'anger'
p1203
I17
sS'breakfast'
p1204
I3
sS'recover'
p1205
I9
sS'saw'
p1206
I7
sS'any'
p1207
I283
sS'marathon'
p1208
I4
sS'invite'
p1209
I4
sS'fucking'
p1210
I15
sS'downwards'
p1211
I4
sS'ideas'
p1212
I14
sS'six'
p1213
I5
sS'ideal'
p1214
I2
sS'take'
p1215
I93
sS'online'
p1216
I3
sS'wanting'
p1217
I31
sS'becoming'
p1218
I14
sS'urge'
p1219
I3
sS'tramatizing'
p1220
I5
sS'sure'
p1221
I37
sS'multiple'
p1222
I19
sS'normal'
p1223
I28
sS'track'
p1224
I5
sS'knew'
p1225
I9
sS'ahasystem'
p1226
I1
sS'paid'
p1227
I5
sS'ditching'
p1228
I4
sS'startribune'
p1229
I1
sS'tracy'
p1230
I1
sS'america'
p1231
I4
sS'hardships'
p1232
I8
sS'forever'
p1233
I13
sS'especially'
p1234
I12
sS'energize'
p1235
I4
sS'average'
p1236
I8
sS'proud'
p1237
I5
sS'888'
p1238
I3
sS'hungry'
p1239
I18
sS'highlight'
p1240
I3
sS'mre'
p1241
I6
sS'drastically'
p1242
I8
sS'show'
p1243
I20
sS'cheat'
p1244
I6
sS'reinvigorate'
p1245
I3
sS'cheap'
p1246
I4
sS'discovered'
p1247
I3
sS'elevate'
p1248
I3
sS'bright'
p1249
I9
sS'spaces'
p1250
I13
sS'aggressive'
p1251
I6
sS'realizing'
p1252
I4
sS'slow'
p1253
I7
sS'shithole'
p1254
I5
sS'enough'
p1255
I55
sS'spirituality'
p1256
I1
sS'only'
p1257
I80
sS'going'
p1258
I206
sS'black'
p1259
I8
sS'equipped'
p1260
I5
sS'awareness'
p1261
I4
sS'info'
p1262
I3
sS'psychiatrist'
p1263
I9
sS'routine'
p1264
I16
sS'soon'
p1265
I22
sS'unimportant'
p1266
I2
sS'cannot'
p1267
I47
sS'unconsciously'
p1268
I3
sS'gebbia'
p1269
I1
sS'clearest'
p1270
I1
sS'girl'
p1271
I15
sS'seldom'
p1272
I4
sS'versions'
p1273
I3
sS'absurdly'
p1274
I4
sS'worried'
p1275
I45
sS'overworked'
p1276
I3
sS'jokes'
p1277
I5
sS'stupid'
p1278
I23
sS'worries'
p1279
I5
sS'where'
p1280
I89
sS'16th'
p1281
I4
sS"friends'"
p1282
I5
sS"y'all"
p1283
I5
sS'ignored'
p1284
I10
sS'honesty'
p1285
I3
sS'burst'
p1286
I1
sS'physically'
p1287
I4
sS'signs'
p1288
I2
sS'connections'
p1289
I3
sS'actively'
p1290
I3
sS'college'
p1291
I65
sS'psychosis'
p1292
I5
sS'ignores'
p1293
I5
sS'seal'
p1294
I3
sS'stigma'
p1295
I13
sS'utm'
p1296
I5
sS'wonder'
p1297
I13
sS'830'
p1298
I3
sS'ways'
p1299
I13
sS'review'
p1300
I4
sS'circulating'
p1301
I2
sS'3'
I36
sS'between'
p1302
I20
sS'affecting'
p1303
I6
sS'teens'
p1304
I7
sS'reading'
p1305
I8
sS'across'
p1306
I3
sS'notice'
p1307
I22
sS'jobs'
p1308
I8
sS'useful'
p1309
I2
sS'25'
p1310
I2
sS'points'
p1311
I5
sS'killing'
p1312
I12
sS'hurts'
p1313
I13
sS'article'
p1314
I28
sS'spark'
p1315
I3
sS'come'
p1316
I53
sS'reaction'
p1317
I5
sS'manu'
p1318
I5
sS'reddit'
p1319
I6
sS'many'
p1320
I39
sS'quiet'
p1321
I4
sS'somewhere'
p1322
I9
sS's'
I8
sS'untethered'
p1323
I3
sS'vus'
p1324
I5
sS'yelled'
p1325
I4
sS'nyti'
p1326
I7
sS'comes'
p1327
I23
sS'duty'
p1328
I5
sS'afterwards'
p1329
I5
sS'period'
p1330
I1
sS'satisfaction'
p1331
I5
sS'anti'
p1332
I2
sS'learning'
p1333
I18
sS'approval'
p1334
I4
sS'pof'
p1335
I6
sS'comprehend'
p1336
I8
sS'adults'
p1337
I10
sS'considering'
p1338
I26
sS'symptoms'
p1339
I15
sS'companionship'
p1340
I3
sS'capable'
p1341
I9
sS'west'
p1342
I2
sS'vacation'
p1343
I9
sS'breath'
p1344
I3
sS'tedcomshare'
p1345
I1
sS'peaceful'
p1346
I7
sS'exhaustion'
p1347
I3
sS'wants'
p1348
I39
sS'direction'
p1349
I7
sS'discontinuing'
p1350
I3
sS'shoutout'
p1351
I2
sS'layperson'
p1352
I6
sS'377624388'
p1353
I2
sS'dramatic'
p1354
I19
sS'wake'
p1355
I13
sS'psychotherapy'
p1356
I1
sS'attentive'
p1357
I1
sS'those'
p1358
I94
sS'sound'
p1359
I8
sS'myself'
p1360
I423
sS'disconnected'
p1361
I5
sS'these'
p1362
I102
sS"n't"
p1363
I1238
sS'cure'
p1364
I4
sS'empaths'
p1365
I3
sS'situation'
p1366
I18
sS'invited'
p1367
I7
sS'ive'
p1368
I18
sS'eventually'
p1369
I5
sS'characteristics'
p1370
I9
sS'coffee'
p1371
I6
sS'sleeping'
p1372
I35
sS'blah'
p1373
I4
sS'tinyurl'
p1374
I13
sS'good'
p1375
I252
sS'minds'
p1376
I3
sS'empath'
p1377
I4
sS'loosing'
p1378
I12
sS'somebody'
p1379
I7
sS'nighter'
p1380
I5
sS'everyday'
p1381
I17
sS'worry'
p1382
I12
sS'different'
p1383
I45
sS'unskillful'
p1384
I5
sS'doctor'
p1385
I7
sS'media'
p1386
I4
sS'spiraling'
p1387
I10
sS'same'
p1388
I27
sS'trip'
p1389
I21
sS'ya'
p1390
I5
sS'html'
p1391
I12
sS'speech'
p1392
I9
sS'arguments'
p1393
I5
sS'struggling'
p1394
I49
sS'events'
p1395
I17
sS'week'
p1396
I68
sS'closest'
p1397
I10
sS'assist'
p1398
I1
sS'weed'
p1399
I15
sS'running'
p1400
I7
sS'detached'
p1401
I6
sS'favorites'
p1402
I1
sS'changing'
p1403
I17
sS'validate'
p1404
I10
sS'totally'
p1405
I20
sS'refreshed'
p1406
I3
sS'mentally'
p1407
I14
sS'psychiatrists'
p1408
I10
sS'charges'
p1409
I1
sS'floor'
p1410
I3
sS'popsci'
p1411
I1
sS'severe'
p1412
I13
sS'without'
p1413
I91
sS'solve'
p1414
I12
sS'inability'
p1415
I6
sS'amazed'
p1416
I13
sS'scholarship'
p1417
I13
sS'summer'
p1418
I19
sS'desolate'
p1419
I5
sS"''i'm"
p1420
I4
sS'being'
p1421
I232
sS'money'
p1422
I5
sS'guided'
p1423
I6
sS'exaggerating'
p1424
I10
sS'actions'
p1425
I8
sS'kill'
p1426
I49
sS'touch'
p1427
I7
sS'rickcollingwood'
p1428
I1
sS'blow'
p1429
I5
sS'death'
p1430
I28
sS'excuses'
p1431
I4
sS'thinking'
p1432
I51
sS'rose'
p1433
I4
sS'remember'
p1434
I36
sS'seems'
p1435
I88
sS'except'
p1436
I5
sS'blog'
p1437
I12
sS'lets'
p1438
I6
sS'lett'
p1439
I5
sS'thoughts'
p1440
I87
sS'tuesday'
p1441
I16
sS'momentum'
p1442
I3
sS'real'
p1443
I45
sS'around'
p1444
I128
sS'read'
p1445
I13
sS'virginia'
p1446
I6
sS'gonna'
p1447
I27
sS'dark'
p1448
I17
sS'huffpost'
p1449
I2
sS'darn'
p1450
I4
sS'mom'
p1451
I43
sS'world'
p1452
I50
sS'lady'
p1453
I9
sS'stranger'
p1454
I5
sS'pounds'
p1455
I20
sS'greeting'
p1456
I2
sS"'ve"
p1457
I453
sS'discarded'
p1458
I3
sS'benefit'
p1459
I5
sS'either'
p1460
I22
sS'lung'
p1461
I2
sS'reduced'
p1462
I3
sS'burdens'
p1463
I6
sS'maximize'
p1464
I1
sS'competition'
p1465
I10
sS'cancel'
p1466
I4
sS'thinks'
p1467
I11
sS'users'
p1468
I6
sS'mood'
p1469
I42
sS'memories'
p1470
I4
sS'highest'
p1471
I5
sS'overly'
p1472
I5
sS'1087afcb0e31'
p1473
I2
sS'critical'
p1474
I6
sS'chapman'
p1475
I1
sS'expressing'
p1476
I5
sS'provider'
p1477
I10
sS'refundable'
p1478
I5
sS'quitting'
p1479
I3
sS'terrifies'
p1480
I7
sS'caring'
p1481
I1
sS'welcome'
p1482
I3
sS'power'
p1483
I24
sS'internship'
p1484
I5
sS'dissection'
p1485
I4
sS'communicate'
p1486
I9
sS'2ce1qfl'
p1487
I2
sS'broken'
p1488
I42
sS'meets'
p1489
I2
sS'found'
p1490
I56
sS'sadder'
p1491
I4
sS'on'
p1492
I603
sS'ok'
p1493
I21
sS'oh'
p1494
I8
sS'reprisals'
p1495
I4
sS'of'
p1496
I1122
sS'industry'
p1497
I3
sS'cares'
p1498
I5
sS'discussed'
p1499
I2
sS'reinforcing'
p1500
I3
sS'meal'
p1501
I3
sS'tremendous'
p1502
I3
sS'fell'
p1503
I9
sS'stand'
p1504
I8
sS'act'
p1505
I15
sS'mixed'
p1506
I5
sS'mean'
p1507
I11
sS'or'
p1508
I434
sS'road'
p1509
I7
sS'ladies'
p1510
I4
sS'30lbs'
p1511
I3
sS'curses'
p1512
I5
sS'communication'
p1513
I9
sS'image'
p1514
I7
sS'skilled'
p1515
I5
sS'harness'
p1516
I4
sS'determine'
p1517
I3
sS'dreaming'
p1518
I11
sS'uptown'
p1519
I1
sS'your'
p1520
I179
sS'restless'
p1521
I4
sS'stare'
p1522
I4
sS'forwarded'
p1523
I3
sS'her'
p1524
I163
sS'area'
p1525
I4
sS'distracted'
p1526
I4
sS'hey'
p1527
I11
sS'lol'
p1528
I5
sS'sides'
p1529
I4
sS'start'
p1530
I31
sS'lions'
p1531
I3
sS'low'
p1532
I32
sS'lot'
p1533
I84
sS'resum'
p1534
I3
sS'recommends'
p1535
I3
sS'complete'
p1536
I5
sS'bffbmain'
p1537
I4
sS'stressors'
p1538
I9
sS'fricken'
p1539
I5
sS'beginners'
p1540
I2
sS'manipulative'
p1541
I4
sS'trying'
p1542
I112
sS'with'
p1543
I715
sS'buying'
p1544
I10
sS'happening'
p1545
I26
sS'rush'
p1546
I13
sS'romantic'
p1547
I18
sS'minne'
p1548
I4
sS'rage'
p1549
I3
sS'bucket'
p1550
I2
sS'resolving'
p1551
I1
sS'sadness'
p1552
I26
sS'esteem'
p1553
I8
sS'asexuality'
p1554
I3
sS'agree'
p1555
I7
sS'misery'
p1556
I9
sS'strongly'
p1557
I5
sS'illnesses'
p1558
I18
sS'fright'
p1559
I4
sS"'certain'"
p1560
I5
sS'exhausted'
p1561
I12
sS'certain'
p1562
I18
sS'forgot'
p1563
I5
sS'moved'
p1564
I9
sS'deep'
p1565
I29
sS'general'
p1566
I13
sS'as'
p1567
I192
sS'at'
p1568
I369
sS'hobbies'
p1569
I8
sS'girlfriend'
p1570
I56
sS'lifetime'
p1571
I3
sS'moves'
p1572
I5
sS"student'"
p1573
I3
sS'incorrect'
p1574
I3
sS'again'
p1575
I103
sS'onbeing'
p1576
I1
sS'yoga'
p1577
I24
sS'deserve'
p1578
I16
sS'event'
p1579
I12
sS'productively'
p1580
I3
sS'tight'
p1581
I5
sS'5'
I21
sS'you'
p1582
I620
sS'intention'
p1583
I3
sS'gaining'
p1584
I5
sS'separate'
p1585
I8
sS'students'
p1586
I23
sS'882015'
p1587
I3
sS'teeth'
p1588
I3
sS'overreact'
p1589
I3
sS'includes'
p1590
I3
sS'important'
p1591
I33
sS'chris'
p1592
I3
sS'unless'
p1593
I4
sS'finals'
p1594
I19
sS'pool'
p1595
I5
sS'missed'
p1596
I5
sS'building'
p1597
I2
sS'carbs'
p1598
I2
sS'wife'
p1599
I10
sS'mask'
p1600
I10
sS'hello'
p1601
I9
sS'exhausting'
p1602
I9
sS'u'
I30
sS'adam'
p1603
I5
sS'behavioral'
p1604
I3
sS'starting'
p1605
I24
sS'all'
p1606
I315
sS'surrounded'
p1607
I4
sS'liar'
p1608
I4
sS'consider'
p1609
I8
sS'chopracentermeditation'
p1610
I2
sS'caused'
p1611
I9
sS'lack'
p1612
I15
sS'month'
p1613
I26
sS'messy'
p1614
I5
sS'follow'
p1615
I3
sS'meditation'
p1616
I24
sS'religious'
p1617
I13
sS'causes'
p1618
I8
sS'glimpse'
p1619
I4
sS'apartment'
p1620
I10
sS'number'
p1621
I3
sS'tv'
p1622
I10
sS'refocus'
p1623
I3
sS'encourage'
p1624
I3
sS'thursday'
p1625
I4
sS'to'
p1626
I3456
sS'program'
p1627
I1
sS'dairy'
p1628
I2
sS'smile'
p1629
I24
sS'enjoying'
p1630
I3
sS'presentation'
p1631
I5
sS'activities'
p1632
I14
sS'belonging'
p1633
I3
sS'woman'
p1634
I3
sS'appointment'
p1635
I13
sS'worse'
p1636
I42
sS'sitting'
p1637
I9
sS'very'
p1638
I114
sS'worst'
p1639
I33
sS'decide'
p1640
I9
sS'fall'
p1641
I16
sS'awful'
p1642
I32
sS'ticket'
p1643
I5
sS'difference'
p1644
I13
sS'rn'
p1645
I5
sS'list'
p1646
I7
sS'joined'
p1647
I15
sS'sliding'
p1648
I5
sS'reminding'
p1649
I4
sS'sane'
p1650
I7
sS'small'
p1651
I28
sS'quicker'
p1652
I5
sS'ten'
p1653
I5
sS'skin'
p1654
I4
sS'ted'
p1655
I3
sS'beliefs'
p1656
I5
sS'past'
p1657
I45
sS'19'
p1658
I2
sS'perspective'
p1659
I2
sS'pass'
p1660
I3
sS'promotes'
p1661
I3
sS'casual'
p1662
I4
sS'creatures'
p1663
I2
sS'trick'
p1664
I7
sS'what'
p1665
I646
sS'stood'
p1666
I13
sS'darkness'
p1667
I10
sS'sun'
p1668
I8
sS'section'
p1669
I1
sS'drifting'
p1670
I4
sS'caffeine'
p1671
I4
sS'emotions'
p1672
I48
sS'crush'
p1673
I11
sS'humiliation'
p1674
I5
sS'learned'
p1675
I15
sS'racing'
p1676
I4
sS'method'
p1677
I5
sS'deborah'
p1678
I5
sS'full'
p1679
I36
sS'threatened'
p1680
I5
sS'answers'
p1681
I2
sS'hours'
p1682
I19
sS'relaxation'
p1683
I3
sS'strong'
p1684
I24
sS'tragedy'
p1685
I5
sS'mallett'
p1686
I1
sS'search'
p1687
I4
sS'ahead'
p1688
I10
sS'stretching'
p1689
I2
sS'experience'
p1690
I48
sS'amount'
p1691
I14
sS'extremes'
p1692
I1
sS'social'
p1693
I29
sS'udrv0yywk'
p1694
I4
sS'hump'
p1695
I2
sS'via'
p1696
I7
sS'followed'
p1697
I3
sS'family'
p1698
I75
sS'suddenly'
p1699
I31
sS'mastering'
p1700
I1
sS'ask'
p1701
I42
sS'semester'
p1702
I17
sS'psychiatrys'
p1703
I3
sS'readily'
p1704
I3
sS'flaws'
p1705
I4
sS'texting'
p1706
I1
sS'two'
p1707
I15
sS'6'
I33
sS'taken'
p1708
I2
sS'more'
p1709
I259
sS'door'
p1710
I7
sS'knows'
p1711
I13
sS'company'
p1712
I9
sS'foregone'
p1713
I4
sS'instrumental'
p1714
I3
sS'tested'
p1715
I2
sS'controlling'
p1716
I5
sS'subconcious'
p1717
I4
sS'oxytocin'
p1718
I1
sS'glad'
p1719
I19
sS'town'
p1720
I12
sS'jim'
p1721
I4
sS'none'
p1722
I2
sS'enlightenment'
p1723
I6
sS'hour'
p1724
I26
sS'middle'
p1725
I11
sS'science'
p1726
I4
sS'sucks'
p1727
I19
sS'offended'
p1728
I2
sS'sudden'
p1729
I5
sS'nine'
p1730
I4
sS'resources'
p1731
I2
sS"''bad"
p1732
I4
sS'learn'
p1733
I27
sS'abandon'
p1734
I2
sS'history'
p1735
I5
sS'beautiful'
p1736
I6
sS'stubborn'
p1737
I5
sS'compare'
p1738
I7
sS'prompt'
p1739
I3
sS'challenging'
p1740
I6
sS'medical'
p1741
I5
sS'lives'
p1742
I11
sS"'we'"
p1743
I4
sS'share'
p1744
I50
sS'stinging'
p1745
I2
sS'accept'
p1746
I27
sS'numbers'
p1747
I5
sS'sense'
p1748
I12
sS'pone'
p1749
I1
sS'phrase'
p1750
I2
sS'talents'
p1751
I3
sS'mn'
p1752
I2
sS'action'
p1753
I2
sS'unappreciated'
p1754
I5
sS'huge'
p1755
I19
sS'needs'
p1756
I17
sS'goal'
p1757
I10
sS'drained'
p1758
I6
sS'needy'
p1759
I7
sS'plans'
p1760
I11
sS'comfort'
p1761
I3
sS'essteem'
p1762
I5
sS'clinb'
p1763
I4
sS'functioning'
p1764
I3
sS'fed'
p1765
I3
sS'plant'
p1766
I4
sS'quora'
p1767
I2
sS'okay'
p1768
I44
sS'tried'
p1769
I28
sS'rude'
p1770
I4
sS'612'
p1771
I1
sS'advice'
p1772
I85
sS'sympathize'
p1773
I4
sS'questioning'
p1774
I8
sS'reflect'
p1775
I4
sS'fb'
p1776
I6
sS'seemingly'
p1777
I16
sS'numb'
p1778
I28
sS'faculty'
p1779
I3
sS'authentic'
p1780
I2
sS'flutter'
p1781
I3
sS'a'
I1800
sS'short'
p1782
I7
sS"'what"
p1783
I3
sS'couragehub'
p1784
I1
sS'responsibility'
p1785
I13
sS'dread'
p1786
I2
sS'pay'
p1787
I18
sS'dream'
p1788
I14
sS'playing'
p1789
I3
sS'help'
p1790
I299
sS'reminded'
p1791
I3
sS'heartfelt'
p1792
I8
sS'sooo'
p1793
I2
sS'mission'
p1794
I13
sS'setback'
p1795
I4
sS'held'
p1796
I5
sS'attitude'
p1797
I7
sS'through'
p1798
I68
sS'committed'
p1799
I7
sS'hell'
p1800
I8
sS'suffer'
p1801
I22
sS'its'
p1802
I66
sS'arrogant'
p1803
I4
sS'unhealthy'
p1804
I7
sS'24'
p1805
I7
sS'messed'
p1806
I5
sS'27'
p1807
I1
sS'20'
p1808
I3
sS'21'
p1809
I11
sS'polarizing'
p1810
I3
sS'solving'
p1811
I1
sS'28'
p1812
I13
sS'29'
p1813
I4
sS'actually'
p1814
I25
sS'late'
p1815
I26
sS'parts'
p1816
I1
sS'baal'
p1817
I3
sS'ruining'
p1818
I8
sS'annual'
p1819
I3
sS'might'
p1820
I21
sS'hurting'
p1821
I27
sS'someone'
p1822
I115
sS'motivated'
p1823
I20
sS'seeking'
p1824
I4
sS'food'
p1825
I9
sS'males'
p1826
I1
sS'noticing'
p1827
I17
sS'brutally'
p1828
I4
sS'awoke'
p1829
I6
sS'weeds'
p1830
I3
sS'yr'
p1831
I3
sS'sucked'
p1832
I3
sS'easily'
p1833
I3
sS'brokenness'
p1834
I3
sS'pregnant'
p1835
I6
sS'coping'
p1836
I1
sS'always'
p1837
I118
sS'habits'
p1838
I7
sS'stopped'
p1839
I14
sS'die'
p1840
I53
sS'inherent'
p1841
I3
sS'shocking'
p1842
I5
sS'friendship'
p1843
I3
sS'referred'
p1844
I3
sS'heavy'
p1845
I9
sS'weighs'
p1846
I1
sS'harm'
p1847
I18
sS'everyone'
p1848
I154
sS'mental'
p1849
I153
sS'weight'
p1850
I41
sS'house'
p1851
I16
sS'energy'
p1852
I32
sS'hard'
p1853
I180
sS'reduce'
p1854
I13
sS'idea'
p1855
I28
sS'accidentally'
p1856
I2
sS'resurfacing'
p1857
I13
sS'connect'
p1858
I3
sS'blues'
p1859
I4
sS'beyond'
p1860
I17
sS'insurance'
p1861
I21
sS'really'
p1862
I390
sS'anxious'
p1863
I91
sS'perking'
p1864
I3
sS'alcohol'
p1865
I14
sS'bullied'
p1866
I3
sS'since'
p1867
I88
sS'meditating'
p1868
I5
sS'research'
p1869
I11
sS'cheated'
p1870
I6
sS'health'
p1871
I72
sS'7'
I6
sS'compounding'
p1872
I3
sS'issue'
p1873
I4
sS'occurs'
p1874
I8
sS'ass'
p1875
I12
sS'downs'
p1876
I18
sS'belief'
p1877
I4
sS'uofmn'
p1878
I17
sS'circumstance'
p1879
I10
sS'confidence'
p1880
I16
sS'forgive'
p1881
I17
sS'reason'
p1882
I35
sS'members'
p1883
I8
sS'imagine'
p1884
I4
sS'put'
p1885
I36
sS'teach'
p1886
I6
sS'beginning'
p1887
I2
sS'improved'
p1888
I5
sS'needing'
p1889
I4
sS'terrible'
p1890
I25
sS'mpsi'
p1891
I1
sS'w'
I14
sS'maritsapatrinos'
p1892
I4
sS'heartbeat'
p1893
I3
sS'fallen'
p1894
I4
sS'throws'
p1895
I5
sS'reinforced'
p1896
I3
sS'feed'
p1897
I8
sS'major'
p1898
I16
sS'fitnesss'
p1899
I3
sS'dont'
p1900
I75
sS'slipped'
p1901
I4
sS'feel'
p1902
I877
sS'relate'
p1903
I20
sS'knocking'
p1904
I4
sS'reflected'
p1905
I2
sS'shameful'
p1906
I5
sS'talked'
p1907
I6
sS'done'
p1908
I79
sS'neglects'
p1909
I3
sS'blank'
p1910
I4
sS'mixing'
p1911
I5
sS'numbed'
p1912
I1
sS'miss'
p1913
I9
sS'razor'
p1914
I6
sS'guess'
p1915
I23
sS'cirque'
p1916
I2
sS'powerless'
p1917
I8
sS'twenty'
p1918
I4
sS'interviews'
p1919
I3
sS'least'
p1920
I11
sS'wonderful'
p1921
I21
sS'passed'
p1922
I16
sS'finances'
p1923
I3
sS'headache'
p1924
I4
sS'hecato'
p1925
I3
sS'muscles'
p1926
I2
sS'imperfect'
p1927
I1
sS'statement'
p1928
I1
sS'relationship'
p1929
I68
sS'behind'
p1930
I14
sS'relieved'
p1931
I5
sS'luckily'
p1932
I6
sS'part'
p1933
I28
sS'businessinsider'
p1934
I2
sS'doctors'
p1935
I6
sS'focusing'
p1936
I8
sS'believe'
p1937
I26
sS'stairs'
p1938
I3
sS'solidcore'
p1939
I2
sS'stirs'
p1940
I8
sS'center'
p1941
I5
sS'kind'
p1942
I38
sS'gotten'
p1943
I19
sS'youtu'
p1944
I9
sS'marriage'
p1945
I3
sS'supposed'
p1946
I24
sS'toward'
p1947
I2
sS'treated'
p1948
I14
sS'remembers'
p1949
I3
sS'risky'
p1950
I4
sS'brining'
p1951
I5
sS'ziplined'
p1952
I3
sS'motivation'
p1953
I32
sS'suffocating'
p1954
I5
sS'fights'
p1955
I5
sS'defect'
p1956
I2
sS'relieve'
p1957
I3
sS'juice'
p1958
I3
sS'vulnerable'
p1959
I4
sS'option'
p1960
I4
sS'lie'
p1961
I5
sS'nights'
p1962
I17
sS'depending'
p1963
I6
sS'lil'
p1964
I3
sS'self'
p1965
I101
sS'empowered'
p1966
I4
sS'couch'
p1967
I8
sS'also'
p1968
I57
sS'internal'
p1969
I3
sS'build'
p1970
I6
sS'finding'
p1971
I14
sS'club'
p1972
I1
sS'play'
p1973
I14
sS'experienced'
p1974
I23
sS'quote'
p1975
I4
sS'eggs'
p1976
I5
sS'reach'
p1977
I14
sS'pondering'
p1978
I3
sS'react'
p1979
I6
sS'most'
p1980
I47
sS'plan'
p1981
I4
sS'kat'
p1982
I1
sS'nothing'
p1983
I81
sS'stressful'
p1984
I6
sS'extremely'
p1985
I25
sS'understands'
p1986
I5
sS'clear'
p1987
I5
sS'sometimes'
p1988
I108
sS'cover'
p1989
I9
sS'aloneee'
p1990
I5
sS'bodies'
p1991
I1
sS'clean'
p1992
I4
sS'dragged'
p1993
I7
sS'lying'
p1994
I28
sS'despise'
p1995
I4
sS'hyper'
p1996
I6
sS'particularly'
p1997
I6
sS'obligations'
p1998
I6
sS'ugg'
p1999
I4
sS'hugging'
p2000
I5
sS'wasted'
p2001
I17
sS'session'
p2002
I20
sS'fine'
p2003
I4
sS'find'
p2004
I147
sS'relive'
p2005
I4
sS'impact'
p2006
I9
sS'giant'
p2007
I5
sS'rocket'
p2008
I3
sS'paranoid'
p2009
I5
sS'nervous'
p2010
I23
sS'ruin'
p2011
I13
sS'writer'
p2012
I3
sS'paranoia'
p2013
I7
sS'unhappy'
p2014
I5
sS'pretty'
p2015
I62
sS'8'
I6
sS'discuss'
p2016
I5
sS'giants'
p2017
I5
sS'his'
p2018
I44
sS'hit'
p2019
I17
sS'spoiler'
p2020
I1
sS'dependent'
p2021
I7
sS'constricting'
p2022
I5
sS'express'
p2023
I17
sS'sunny'
p2024
I4
sS'trees'
p2025
I3
sS'feels'
p2026
I61
sS'courage'
p2027
I4
sS'valuable'
p2028
I5
sS'during'
p2029
I20
sS'him'
p2030
I133
sS'distraction'
p2031
I7
sS'breed'
p2032
I1
sS'medicines'
p2033
I5
sS'cry'
p2034
I36
sS'04'
p2035
I2
sS'hardship2016'
p2036
I1
sS'common'
p2037
I2
sS'activity'
p2038
I6
sS'x'
I4
sS'relentless'
p2039
I2
sS'wrote'
p2040
I4
sS'insane'
p2041
I4
sS'scenery'
p2042
I4
sS'set'
p2043
I12
sS'rocked'
p2044
I2
sS'cynical'
p2045
I3
sS'declines'
p2046
I1
sS'culture'
p2047
I7
sS'see'
p2048
I151
sS'professional'
p2049
I7
sS'dumb'
p2050
I5
sS'are'
p2051
I419
sS'close'
p2052
I66
sS'arm'
p2053
I10
sS'deploying'
p2054
I5
sS'project'
p2055
I4
sS'spirits'
p2056
I4
sS'pokemon'
p2057
I5
sS'wow'
p2058
I13
sS'currently'
p2059
I23
sS'please'
p2060
I44
sS'terrified'
p2061
I8
sS'taming'
p2062
I1
sS'case'
p2063
I4
sS'silly'
p2064
I6
sS'avoidance'
p2065
I1
sS'knowing'
p2066
I20
sS'seeded'
p2067
I5
sS'recently'
p2068
I51
sS'creating'
p2069
I3
sS'missing'
p2070
I2
sS'initially'
p2071
I5
sS'attention'
p2072
I16
sS'succeed'
p2073
I10
sS'ashtanga'
p2074
I2
sS'invisible'
p2075
I3
sS'pissed'
p2076
I8
sS'both'
p2077
I18
sS'last'
p2078
I133
sS'barely'
p2079
I5
sS'630'
p2080
I1
sS'sensitive'
p2081
I8
sS'connection'
p2082
I5
sS'alot'
p2083
I8
sS'lash'
p2084
I7
sS'focused'
p2085
I11
sS'interactive'
p2086
I4
sS'whole'
p2087
I16
sS'finds'
p2088
I2
sS'load'
p2089
I6
sS'flies'
p2090
I3
sS'underperforming'
p2091
I5
sS'distress'
p2092
I7
sS'point'
p2093
I65
sS'simple'
p2094
I17
sS'1594447624180510'
p2095
I3
sS'community'
p2096
I19
sS'likes'
p2097
I5
sS'church'
p2098
I21
sS'duh'
p2099
I1
sS'worthless'
p2100
I16
sS'create'
p2101
I9
sS'acceptance'
p2102
I5
sS'due'
p2103
I6
sS'strategy'
p2104
I1
sS'hitting'
p2105
I9
sS'geoffrey'
p2106
I2
sS'secret'
p2107
I2
sS'describes'
p2108
I3
sS'damn'
p2109
I2
sS'extreme'
p2110
I8
sS'empty'
p2111
I9
sS'4'
I23
sS'misunderstood'
p2112
I1
sS'lived'
p2113
I5
sS'gay'
p2114
I14
sS'girls'
p2115
I6
sS'else'
p2116
I108
sS'whatever'
p2117
I12
sS'understand'
p2118
I73
sS'underdogs'
p2119
I8
sS'pact'
p2120
I12
sS'look'
p2121
I28
sS'solid'
p2122
I3
sS'tip'
p2123
I9
sS'mpls'
p2124
I5
sS'rope'
p2125
I5
sS'forgetting'
p2126
I1
sS'while'
p2127
I37
sS'homework'
p2128
I7
sS'behavior'
p2129
I3
sS'fun'
p2130
I32
sS'scholarshipinfo'
p2131
I3
sS'guide'
p2132
I11
sS'loop'
p2133
I12
sS'theres'
p2134
I4
sS'styles'
p2135
I1
sS'hoping'
p2136
I16
sS"'best"
p2137
I5
sS'reads'
p2138
I1
sS'beautifully'
p2139
I4
sS'ready'
p2140
I19
sS'rid'
p2141
I3
sS'chase'
p2142
I2
sS'funny'
p2143
I4
sS'baseline'
p2144
I3
sS'anymore'
p2145
I105
sS'james'
p2146
I6
sS'belong'
p2147
I5
sS'discredit'
p2148
I4
sS'volunteering'
p2149
I5
sS'peoples'
p2150
I1
sS'9'
I24
sS'itchy'
p2151
I3
sS'forgiveness'
p2152
I8
sS'conflict'
p2153
I5
sS'higher'
p2154
I11
sS'development'
p2155
I3
sS'used'
p2156
I33
sS'temporary'
p2157
I14
sS'comprehensive'
p2158
I3
sS'overweight'
p2159
I2
sS'yesterday'
p2160
I22
sS'holidays'
p2161
I12
sS'moment'
p2162
I10
sS'levels'
p2163
I4
sS'moving'
p2164
I32
sS'purpose'
p2165
I18
sS'plugs'
p2166
I3
sS'noticeably'
p2167
I3
sS'recent'
p2168
I5
sS'deepak'
p2169
I2
sS'lower'
p2170
I14
sS'older'
p2171
I4
sS'spent'
p2172
I3
sS'double'
p2173
I10
sS'person'
p2174
I100
sS'edge'
p2175
I3
sS'organization'
p2176
I3
sS'genuinely'
p2177
I3
sS'spend'
p2178
I9
sS'prevention'
p2179
I1
sS'dieting'
p2180
I10
sS'abilities'
p2181
I5
sS'listening'
p2182
I3
sS'judgments'
p2183
I4
sS'ppd'
p2184
I3
sS'distracting'
p2185
I6
sS'genderfluid'
p2186
I5
sS'irritable'
p2187
I11
sS'regardless'
p2188
I5
sS'scabs'
p2189
I3
sS'cut'
p2190
I47
sS'cup'
p2191
I3
sS'danger'
p2192
I3
sS'exercising'
p2193
I5
sS'source'
p2194
I3
sS'overthinking'
p2195
I2
sS'parents'
p2196
I37
sS'crying'
p2197
I28
sS'input'
p2198
I3
sS'excited'
p2199
I35
sS'surprised'
p2200
I3
sS'useless'
p2201
I5
sS'ridiculously'
p2202
I5
sS'march'
p2203
I3
sS'seo0a1g'
p2204
I2
sS'big'
p2205
I29
sS'couple'
p2206
I29
sS'sharpener'
p2207
I6
sS'judgement'
p2208
I6
sS'matters'
p2209
I15
sS'suffering'
p2210
I29
sS'moods'
p2211
I4
sS'hallucinations'
p2212
I5
sS'bit'
p2213
I77
sS'projects'
p2214
I4
sS'helpful'
p2215
I26
sS'd'
I3
sS'tangentially'
p2216
I3
sS'message'
p2217
I5
sS'kickin'
p2218
I3
sS'multicultural'
p2219
I3
sS'zoloft'
p2220
I13
sS'continue'
p2221
I12
sS'unstable'
p2222
I17
sS'translated'
p2223
I2
sS'softness'
p2224
I5
sS'disorder'
p2225
I24
sS'ptsd'
p2226
I9
sS'google'
p2227
I1
sS'partying'
p2228
I4
sS'often'
p2229
I28
sS'absolutely'
p2230
I8
sS'id523121474'
p2231
I1
sS'some'
p2232
I250
sS'back'
p2233
I130
sS'abusing'
p2234
I5
sS'understood'
p2235
I6
sS'trends'
p2236
I9
sS'towards'
p2237
I5
sS'sight'
p2238
I6
sS'mirror'
p2239
I11
sS'curious'
p2240
I9
sS'oddly'
p2241
I2
sS'ourselves'
p2242
I10
sS'momentary'
p2243
I3
sS'facing'
p2244
I3
sS'scale'
p2245
I5
sS'affects'
p2246
I5
sS'decision'
p2247
I7
sS'shall'
p2248
I3
sS'meds'
p2249
I30
sS'connecting'
p2250
I7
sS'masculinity'
p2251
I2
sS'dating'
p2252
I14
sS'apathetic'
p2253
I4
sS'be'
p2254
I554
sS'bf'
p2255
I22
sS'run'
p2256
I14
sS'bc'
p2257
I17
sS'bi'
p2258
I4
sS'stem'
p2259
I3
sS'bt'
p2260
I5
sS'step'
p2261
I13
sS'weil'
p2262
I1
sS'bp'
p2263
I3
sS'nowhere'
p2264
I9
sS'refuses'
p2265
I13
sS'ache'
p2266
I6
sS'carol'
p2267
I1
sS'by'
p2268
I162
sS'rut'
p2269
I9
sS'wrecking'
p2270
I6
sS'8pm'
p2271
I6
sS'netflix'
p2272
I3
sS'deserves'
p2273
I5
sS'idk'
p2274
I81
sS'alert'
p2275
I1
sS'together'
p2276
I4
sS'hatred'
p2277
I3
sS'wanna'
p2278
I19
sS'anthro'
p2279
I5
sS'block'
p2280
I4
sS'ppl'
p2281
I15
sS'seeing'
p2282
I54
sS'unnoticed'
p2283
I5
sS'hometown'
p2284
I3
sS'relapsed'
p2285
I12
sS'within'
p2286
I12
sS'services'
p2287
I9
sS'neko'
p2288
I1
sS'reptech'
p2289
I2
sS'calming'
p2290
I6
sS'criticisms'
p2291
I1
sS'story'
p2292
I9
sS'we0r'
p2293
I2
sS'spending'
p2294
I3
sS'transcending'
p2295
I3
sS'question'
p2296
I12
sS'fast'
p2297
I16
sS'summertime'
p2298
I3
sS'forward'
p2299
I10
sS'twitter'
p2300
I12
sS'himself'
p2301
I9
sS'https'
p2302
I51
sS'relaxed'
p2303
I8
sS'motivational'
p2304
I6
sS'slump'
p2305
I9
sS'hoped'
p2306
I3
sS'boys'
p2307
I4
sS'link'
p2308
I2
sS'reassurance'
p2309
I4
sS'hopes'
p2310
I4
sS'line'
p2311
I10
sS'dull'
p2312
I6
sS'posted'
p2313
I8
sS'directed'
p2314
I5
sS'ideals'
p2315
I3
sS'rejection'
p2316
I4
sS'up'
p2317
I260
sS'us'
p2318
I63
sS'ur'
p2319
I5
sS"'re"
p2320
I51
sS'mature'
p2321
I8
sS'continuously'
p2322
I4
sS'fluctuations'
p2323
I4
sS'similar'
p2324
I14
sS'called'
p2325
I27
sS'bever'
p2326
I5
sS'constant'
p2327
I13
sS'worthwhile'
p2328
I6
sS'mindful'
p2329
I2
sS'5maq6c'
p2330
I2
sS'unsafe'
p2331
I5
sS'u4ozqf8c'
p2332
I3
sS'single'
p2333
I14
sS'sharing'
p2334
I6
sS'chat'
p2335
I6
sS'34cdwrw4n'
p2336
I2
sS'curl'
p2337
I4
sS'supportive'
p2338
I3
sS'placethey'
p2339
I4
sS'judgmental'
p2340
I1
sS'btwn'
p2341
I5
sS'peace'
p2342
I5
sS'fears'
p2343
I4
sS'backs'
p2344
I5
sS'preventing'
p2345
I8
sS'clicking'
p2346
I5
sS'nap'
p2347
I6
sS'reputation'
p2348
I3
sS'ellen'
p2349
I1
sS'mammoth'
p2350
I1
sS'nice'
p2351
I21
sS'smiles'
p2352
I3
sS'energetic'
p2353
I5
sS'lucid'
p2354
I1
sS'problems'
p2355
I49
sS'prepared'
p2356
I3
sS'helping'
p2357
I47
sS'meaning'
p2358
I13
sS"ly'"
p2359
I4
sS'restrained'
p2360
I4
sS'feasible'
p2361
I4
sS'ago'
p2362
I34
sS'suffers'
p2363
I5
sS'happier'
p2364
I5
sS'vice'
p2365
I2
sS'age'
p2366
I7
sS'wellbeing'
p2367
I15
sS'annoyed'
p2368
I4
sS'presenting'
p2369
I4
sS'6332'
p2370
I1
sS'far'
p2371
I16
sS'fresh'
p2372
I3
sS'having'
p2373
I130
sS'once'
p2374
I26
sS'essay'
p2375
I2
sS'scratch'
p2376
I6
sS'results'
p2377
I2
sS'psyche'
p2378
I3
sS'gf'
p2379
I24
sS'ugh'
p2380
I10
sS'edu'
p2381
I3
sS'go'
p2382
I179
sS'issues'
p2383
I41
sS'bothsidesofthetable'
p2384
I1
sS'concerned'
p2385
I4
sS'young'
p2386
I22
sS'send'
p2387
I13
sS'languages'
p2388
I1
sS'helps'
p2389
I46
sS'stable'
p2390
I16
sS'details'
p2391
I3
sS"'bad'"
p2392
I4
sS'pleasing'
p2393
I4
sS'dramatically'
p2394
I3
sS'sent'
p2395
I5
sS'breathing'
p2396
I12
sS'torture'
p2397
I12
sS'outside'
p2398
I9
sS'scattered'
p2399
I4
sS'assuming'
p2400
I10
sS'facebook'
p2401
I11
sS'telling'
p2402
I33
sS'yourselves'
p2403
I6
sS'drinking'
p2404
I30
sS"'how"
p2405
I2
sS'posture'
p2406
I3
sS'entire'
p2407
I12
sS'respectful'
p2408
I3
sS'experiencing'
p2409
I34
sS'notes'
p2410
I1
sS'shock'
p2411
I5
sS'colors'
p2412
I6
sS'fewer'
p2413
I2
sS'try'
p2414
I119
sS'race'
p2415
I2
sS'busier'
p2416
I5
sS'car'
p2417
I9
sS'havent'
p2418
I12
sS'challenge'
p2419
I2
sS'related'
p2420
I2
sS'smaller'
p2421
I10
sS'booty'
p2422
I2
sS'ze'
p2423
I2
sS'sensation'
p2424
I5
sS'waking'
p2425
I2
sS'video'
p2426
I9
sS'grest'
p2427
I3
sS'235dfd4d353a'
p2428
I2
sS'initiate'
p2429
I3
sS'odd'
p2430
I15
sS'depression'
p2431
I141
sS'terrifyingly'
p2432
I4
sS'giving'
p2433
I19
sS'tuesdays'
p2434
I1
sS'destoyed'
p2435
I5
sS'expressed'
p2436
I3
sS'overwhelmed'
p2437
I18
sS'seconds'
p2438
I2
sS'waiting'
p2439
I10
sS'values'
p2440
I5
sS'exercise'
p2441
I7
sS'inveniam'
p2442
I3
sS'body'
p2443
I11
sS'justification'
p2444
I4
sS'degree'
p2445
I10
sS'pushing'
p2446
I4
sS'delivering'
p2447
I5
sS'highly'
p2448
I7
sS"solve'"
p2449
I3
sS'let'
p2450
I83
sS'healing'
p2451
I5
sS'others'
p2452
I95
sS'sexy'
p2453
I7
sS'imperfections'
p2454
I5
sS'mindset'
p2455
I6
sS'h49gnsk'
p2456
I2
sS'great'
p2457
I93
sS'survivor'
p2458
I4
sS'numbness'
p2459
I14
sS'distressed'
p2460
I5
sS'30'
p2461
I19
sS'leaving'
p2462
I13
sS'evading'
p2463
I1
sS'definitively'
p2464
I1
sS'opinion'
p2465
I15
sS'makes'
p2466
I89
sS'apple'
p2467
I3
sS'heart'
p2468
I32
sS'win'
p2469
I5
sS'app'
p2470
I57
sS'manage'
p2471
I14
sS'private'
p2472
I3
sS'ocd'
p2473
I8
sS'decrease'
p2474
I2
sS'apply'
p2475
I5
sS'resolutions'
p2476
I2
sS'sugar'
p2477
I3
sS'tools'
p2478
I8
sS'standing'
p2479
I3
sS'use'
p2480
I41
sS'exciting'
p2481
I5
sS'from'
p2482
I256
sS'next'
p2483
I29
sS'procrastinate'
p2484
I2
sS'few'
p2485
I99
sS'doubt'
p2486
I13
sS'contentment'
p2487
I3
sS'save'
p2488
I3
sS'themselves'
p2489
I16
sS'sort'
p2490
I38
sS'pencil'
p2491
I10
sS'started'
p2492
I59
sS'becomes'
p2493
I8
sS'impress'
p2494
I2
sS'occurred'
p2495
I4
sS'fuck'
p2496
I15
sS'train'
p2497
I6
sS'ashamed'
p2498
I29
sS'nonreactive'
p2499
I4
sS'tearing'
p2500
I4
sS'account'
p2501
I5
sS'practicing'
p2502
I1
sS'f'
I3
sS'this'
p2503
I667
sS'ride'
p2504
I8
sS'sounded'
p2505
I5
sS'anywhere'
p2506
I4
sS'obvious'
p2507
I6
sS'uuuuuhhhhh'
p2508
I1
sS'about'
p2509
I521
sS'dropped'
p2510
I4
sS'control'
p2511
I44
sS'hip'
p2512
I2
sS'od'
p2513
I3
sS'links'
p2514
I2
sS'process'
p2515
I8
sS'favorite'
p2516
I3
sS'high'
p2517
I22
sS'professor'
p2518
I5
sS'pulling'
p2519
I3
sS'something'
p2520
I187
sS'slip'
p2521
I4
sS'dominant'
p2522
I5
sS'educational'
p2523
I8
sS'lama'
p2524
I4
sS'hinders'
p2525
I4
sS'awkwardness'
p2526
I5
sS'holds'
p2527
I5
sS'noisey'
p2528
I2
sS'meditations'
p2529
I11
sS'responsibilities'
p2530
I7
sS'animal'
p2531
I6
sS'instead'
p2532
I18
sS'struggled'
p2533
I13
sS'comedy'
p2534
I3
sS'panic'
p2535
I40
sS'profile'
p2536
I6
sS'tension'
p2537
I4
sS'blocks'
p2538
I4
sS'stop'
p2539
I132
sS'philosophy'
p2540
I2
sS'tied'
p2541
I4
sS'wrist'
p2542
I6
sS'fits'
p2543
I5
sS'jumpstart'
p2544
I3
sS'overreacting'
p2545
I7
sS'ambiguous'
p2546
I4
sS'realized'
p2547
I29
sS'quickest'
p2548
I3
sS'toorgona9'
p2549
I1
sS'light'
p2550
I19
sS'sit'
p2551
I5
sS'lines'
p2552
I4
sS'robot'
p2553
I3
sS'honestly'
p2554
I21
sS'allow'
p2555
I3
sS'addiction'
p2556
I22
sS'procrastination'
p2557
I5
sS'bathing'
p2558
I3
sS'meditates'
p2559
I3
sS'hardship'
p2560
I1
sS'insight'
p2561
I10
sS'produced'
p2562
I1
sS'hugged'
p2563
I4
sS'own'
p2564
I51
sS'including'
p2565
I10
sS'looks'
p2566
I3
sS'vividly'
p2567
I4
sS'bunch'
p2568
I3
sS'perfect'
p2569
I3
sS'write'
p2570
I4
sS'crabby'
p2571
I7
sS'la'
p2572
I2
sS'zfsbhrf'
p2573
I2
sS'twoxchromosomes'
p2574
I2
sS'2015'
p2575
I12
sS'hobby'
p2576
I4
sS'2017'
p2577
I5
sS'2016'
p2578
I8
sS'2011'
p2579
I5
sS'antidote'
p2580
I3
sS'dad'
p2581
I34
sS'designs'
p2582
I1
sS'greater'
p2583
I5
sS'later'
p2584
I5
sS'frontal'
p2585
I2
sS'repercussions'
p2586
I4
sS'practice'
p2587
I13
sS'cutting'
p2588
I27
sS'bothering'
p2589
I4
sS'kid'
p2590
I6
sS'front'
p2591
I13
sS'kindness'
p2592
I5
sS'realize'
p2593
I26
sS'0131151'
p2594
I1
sS'articles'
p2595
I1
sS'speaks'
p2596
I3
sS'mastery'
p2597
I1
sS'meditated'
p2598
I4
sS'university'
p2599
I7
sS'doesnt'
p2600
I9
sS'truth'
p2601
I4
sS'crossing'
p2602
I2
sS'cravingtoquit'
p2603
I2
sS'shaking'
p2604
I4
sS'brush'
p2605
I6
sS'studios'
p2606
I5
sS'beginner'
p2607
I10
sS'bump'
p2608
I3
sS'registration'
p2609
I1
sS"'but'"
p2610
I1
sS'society'
p2611
I11
sS'exacerbates'
p2612
I7
sS'our'
p2613
I53
sS'sweatshirt'
p2614
I4
sS'out'
p2615
I457
sS'category'
p2616
I4
sS"'"
I14
sS'aside'
p2617
I2
sS'yup'
p2618
I3
sS'airbnb'
p2619
I2
sS'memes'
p2620
I6
sS'cause'
p2621
I20
sS'math'
p2622
I18
sS'shut'
p2623
I2
sS'approached'
p2624
I8
sS'interactions'
p2625
I3
sS'ugliest'
p2626
I4
sS'recommendations'
p2627
I18
sS'uncontrollably'
p2628
I5
sS'attributed'
p2629
I3
sS'completely'
p2630
I39
sS'surely'
p2631
I4
sS'afterward'
p2632
I4
sS'scary'
p2633
I9
sS'drowning'
p2634
I5
sS'prepare'
p2635
I2
sS'steal'
p2636
I4
sS'could'
p2637
I90
sS'times'
p2638
I59
sS'conversation'
p2639
I19
sS'shred'
p2640
I3
sS'trackermn'
p2641
I2
sS'scare'
p2642
I12
sS'south'
p2643
I1
sS'consciously'
p2644
I4
sS'there'
p2645
I210
sS'justing'
p2646
I4
sS'powerful'
p2647
I11
sS'hypomania'
p2648
I3
sS'reaches'
p2649
I3
sS'embarrassed'
p2650
I5
sS'quality'
p2651
I8
sS'destructive'
p2652
I4
sS'fascinating'
p2653
I6
sS'reinvigorates'
p2654
I2
sS'filthy'
p2655
I5
sS'habit'
p2656
I2
sS"''nothing"
p2657
I4
sS'system'
p2658
I3
sS'relations'
p2659
I1
sS'their'
p2660
I45
sS'attack'
p2661
I25
sS'intermediate'
p2662
I3
sS'intelligence'
p2663
I1
sS'messing'
p2664
I15
sS'final'
p2665
I2
sS'painful'
p2666
I5
sS'prone'
p2667
I2
sS'interests'
p2668
I4
sS'exactly'
p2669
I22
sS'coffman'
p2670
I5
sS'chemicals'
p2671
I1
sS'reflecting'
p2672
I5
sS'tantalk1340am'
p2673
I2
sS'manipulation'
p2674
I5
sS'july'
p2675
I3
sS'overwhelming'
p2676
I4
sS'herself'
p2677
I10
sS'neck'
p2678
I4
sS'ipad'
p2679
I13
sS'loved'
p2680
I8
sS'pointers'
p2681
I4
sS'youtube'
p2682
I10
sS'bed'
p2683
I42
sS'patients'
p2684
I4
sS'loves'
p2685
I12
sS'naturally'
p2686
I1
sS'behaviors'
p2687
I10
sS'accusing'
p2688
I5
sS'false'
p2689
I4
sS'bisexual'
p2690
I5
sS'trusting'
p2691
I3
sS'comfortable'
p2692
I24
sS'tonight'
p2693
I64
sS'gentle'
p2694
I5
sS'buy'
p2695
I5
sS'torment'
p2696
I5
sS'unlikely'
p2697
I5
sS'have'
p2698
I794
sS'need'
p2699
I240
sS'academically'
p2700
I5
sS'linked'
p2701
I1
sS'afraid'
p2702
I22
sS'studying'
p2703
I10
sS'able'
p2704
I26
sS'concerns'
p2705
I4
sS'unnecessarily'
p2706
I3
sS'which'
p2707
I52
sS'blades'
p2708
I6
sS'02'
p2709
I1
sS'fuels'
p2710
I3
sS'nytimes'
p2711
I11
sS'combat'
p2712
I5
sS'who'
p2713
I228
sS'danieldalton'
p2714
I4
sS'01'
p2715
I3
sS'connected'
p2716
I11
sS'capacity'
p2717
I2
sS'highschool'
p2718
I5
sS'regressing'
p2719
I3
sS'why'
p2720
I151
sS'socializing'
p2721
I4
sS'refreshing'
p2722
I2
sS'upset'
p2723
I9
sS'disease'
p2724
I4
sS'face'
p2725
I22
sS'normally'
p2726
I4
sS'08'
p2727
I4
sS'fact'
p2728
I18
sS'goals'
p2729
I1
sS'emerging'
p2730
I5
sS'probobly'
p2731
I4
sS'text'
p2732
I8
sS'anyway'
p2733
I16
sS'bring'
p2734
I19
sS'woth'
p2735
I3
sS'planning'
p2736
I14
sS'rough'
p2737
I4
sS'darkest'
p2738
I3
sS'dbt'
p2739
I10
sS'staff'
p2740
I3
sS'partners'
p2741
I4
sS'inspiring'
p2742
I5
sS'podcast'
p2743
I16
sS'based'
p2744
I3
sS'knowledge'
p2745
I3
sS'craziness'
p2746
I2
sS'thatmhg'
p2747
I3
sS'rash'
p2748
I2
sS'should'
p2749
I116
sS'prolong'
p2750
I8
sS'brighter'
p2751
I3
sS'fuel'
p2752
I4
sS'riding'
p2753
I3
sS'hope'
p2754
I38
sS'meant'
p2755
I3
sS'doubting'
p2756
I3
sS'move'
p2757
I27
sS'handle'
p2758
I38
sS'listened'
p2759
I1
sS'watching'
p2760
I6
sS'beat'
p2761
I13
sS'simplest'
p2762
I2
sS'cranky'
p2763
I3
sS'bear'
p2764
I4
sS"'know"
p2765
I2
sS'ones'
p2766
I9
sS'words'
p2767
I16
sS'probably'
p2768
I22
sS'psychcentral'
p2769
I3
sS'endless'
p2770
I4
sS'smash'
p2771
I11
sS'ended'
p2772
I9
sS'married'
p2773
I8
sS'calling'
p2774
I9
sS'optimally'
p2775
I4
sS'stuff'
p2776
I51
sS'processed'
p2777
I2
sS'grab'
p2778
I6
sS'grad'
p2779
I1
sS'view'
p2780
I5
sS'artery'
p2781
I5
sS'guessing'
p2782
I5
sS'c5e4fbea2816'
p2783
I3
sS'prayers'
p2784
I8
sS'national'
p2785
I6
sS'humans'
p2786
I3
sS'lazy'
p2787
I11
sS'yearning'
p2788
I5
sS'intensity'
p2789
I3
sS'computer'
p2790
I3
sS'signed'
p2791
I2
sS'kanye'
p2792
I2
sS'somethings'
p2793
I3
sS'darlingmagazine'
p2794
I1
sS'responses'
p2795
I5
sS'closer'
p2796
I7
sS'destiny'
p2797
I3
sS'attempting'
p2798
I5
sS'pattern'
p2799
I1
sS'nightmare'
p2800
I5
sS'horribly'
p2801
I5
sS'willpower'
p2802
I3
sS'tend'
p2803
I13
sS'genius'
p2804
I2
sS'state'
p2805
I15
sS'difficulties'
p2806
I5
sS'horrible'
p2807
I16
sS'stories'
p2808
I5
sS'juggle'
p2809
I2
sS'frustrated'
p2810
I23
sS'email'
p2811
I4
sS'bought'
p2812
I10
sS'611851'
p2813
I3
sS'ends'
p2814
I4
sS'weighing'
p2815
I8
sS'ability'
p2816
I3
sS'opening'
p2817
I22
sS'junkies'
p2818
I3
sS'joy'
p2819
I2
sS'job'
p2820
I37
sS'joe'
p2821
I1
sS'police'
p2822
I10
sS'legit'
p2823
I6
sS'staring'
p2824
I18
sS'marty'
p2825
I3
sS'career'
p2826
I12
sS'joke'
p2827
I6
sS'taking'
p2828
I52
sS'chopra'
p2829
I2
sS'drug'
p2830
I13
sS'trips'
p2831
I5
sS'etc'
p2832
I21
sS'admit'
p2833
I10
sS'placebo'
p2834
I3
sS'journey'
p2835
I4
sS'otherwise'
p2836
I19
sS'comment'
p2837
I5
sS'relevant'
p2838
I3
sS'wtf'
p2839
I4
sS'gone'
p2840
I14
sS'ca'
p2841
I269
sS'betrayed'
p2842
I5
sS'laugh'
p2843
I8
sS'respect'
p2844
I4
sS'neat'
p2845
I3
sS'quit'
p2846
I38
sS'debt'
p2847
I5
sS'26lbs'
p2848
I4
sS'addition'
p2849
I5
sS'invigorating'
p2850
I2
sS'thanked'
p2851
I5
sS'730'
p2852
I16
sS'slowly'
p2853
I25
sS'treat'
p2854
I7
sS'yak'
p2855
I2
sS'kitchen'
p2856
I5
sS'bbs'
p2857
I3
sS'isolating'
p2858
I5
sS'username'
p2859
I3
sS'shoulders'
p2860
I9
sS'circus'
p2861
I6
sS'diversity'
p2862
I3
sS'mcae'
p2863
I3
sS'am'
p2864
I370
sS'sufficient'
p2865
I3
sS'crappy'
p2866
I4
sS'tense'
p2867
I4
sS'hateful'
p2868
I4
sS'2014'
p2869
I2
sS'smoking'
p2870
I17
sS'an'
p2871
I208
sS'present'
p2872
I6
sS'bye'
p2873
I6
sS'unlike'
p2874
I4
sS'asexual'
p2875
I3
sS'slept'
p2876
I3
sS'means'
p2877
I5
sS'nd'
p2878
I3
sS'harder'
p2879
I11
sS'value'
p2880
I11
sS'choices'
p2881
I11
sS'will'
p2882
I100
sS'remind'
p2883
I8
sS'happened'
p2884
I4
sS'frustrating'
p2885
I3
sS'uncertainty'
p2886
I1
sS've'
p2887
I3
sS'almost'
p2888
I33
sS'demo'
p2889
I4
sS'blood'
p2890
I5
sS'insanely'
p2891
I4
sS'site'
p2892
I5
sS'helped'
p2893
I19
sS'optimistic'
p2894
I5
sS'swinging'
p2895
I3
sS'aggressiveness'
p2896
I3
sS'hearted'
p2897
I15
sS'partner'
p2898
I17
sS'arabic'
p2899
I2
sS'whore'
p2900
I5
sS'ing'
p2901
I3
sS'productivity'
p2902
I8
sS'diets'
p2903
I3
sS'hospitals'
p2904
I3
sS'began'
p2905
I5
sS'jenna'
p2906
I1
sS'strange'
p2907
I16
sS'conversations'
p2908
I3
sS'party'
p2909
I22
sS'gets'
p2910
I17
sS'privileged'
p2911
I4
sS'difficult'
p2912
I16
sS'experimented'
p2913
I6
sS'ball'
p2914
I8
sS'http'
p2915
I90
sS'fraternity'
p2916
I2
sS'emotionally'
p2917
I21
sS'selfish'
p2918
I8
sS'o6d8dz7'
p2919
I1
sS'effect'
p2920
I16
sS'student'
p2921
I7
sS'discouraged'
p2922
I2
sS"'ll"
p2923
I78
sS'php'
p2924
I3
sS'energized'
p2925
I5
sS'off'
p2926
I97
sS'reflection'
p2927
I16
sS'i'
I5947
sS'well'
p2928
I69
sS'fighting'
p2929
I17
sS'thought'
p2930
I56
sS'sets'
p2931
I3
sS'muscle'
p2932
I5
sS'drawing'
p2933
I13
sS'usual'
p2934
I9
sS'cried'
p2935
I6
sS'less'
p2936
I54
sS'moments'
p2937
I7
sS'liked'
p2938
I2
sS'mistaken'
p2939
I5
sS'cries'
p2940
I8
sS'distant'
p2941
I14
sS'26u'
p2942
I2
sS'rest'
p2943
I6
sS'graduate'
p2944
I7
sS'happiness'
p2945
I16
sS'upworthy'
p2946
I3
sS'bragging'
p2947
I3
sS'drunk'
p2948
I6
sS'capabilities'
p2949
I5
sS'day'
p2950
I156
sS'reasons'
p2951
I21
sS'other'
p2952
I60
sS'ski'
p2953
I2
sS'postpartum'
p2954
I3
sS'kick'
p2955
I3
sS'clouded'
p2956
I5
sS'tics'
p2957
I4
sS'worlds'
p2958
I5
sS'checking'
p2959
I7
sS'howto'
p2960
I5
sS'five'
p2961
I9
sS'know'
p2962
I532
sS'faciam'
p2963
I3
sS'reconcile'
p2964
I3
sS'drive'
p2965
I3
sS'unneeded'
p2966
I2
sS'loss'
p2967
I5
sS'necessary'
p2968
I22
sS'like'
p2969
I673
sS'success'
p2970
I12
sS'lose'
p2971
I14
sS'become'
p2972
I13
sS'works'
p2973
I26
sS'ryd2yucbg'
p2974
I3
sS'eclecticenergies'
p2975
I3
sS'poor'
p2976
I11
sS'shed'
p2977
I8
sS'because'
p2978
I227
sS'scared'
p2979
I95
sS'shem'
p2980
I3
sS'peer'
p2981
I2
sS'searching'
p2982
I5
sS'alive'
p2983
I29
sS'tumblr'
p2984
I2
sS'growth'
p2985
I8
sS'home'
p2986
I35
sS'blade'
p2987
I6
sS'scares'
p2988
I22
sS'happens'
p2989
I27
sS'lead'
p2990
I7
sS'esp'
p2991
I5
sS'literally'
p2992
I14
sS'avoid'
p2993
I3
sS'traumatic'
p2994
I4
sS'paying'
p2995
I1
sS'rewarding'
p2996
I4
sS'does'
p2997
I147
sS'passion'
p2998
I5
sS'therapists'
p2999
I19
sS'screwed'
p3000
I4
sS'bosses'
p3001
I2
sS'reaching'
p3002
I5
sS'journal'
p3003
I1
sS'consuming'
p3004
I3
sS'pressure'
p3005
I22
sS'although'
p3006
I10
sS'worthy'
p3007
I6
sS'tempering'
p3008
I5
sS'stage'
p3009
I11
sS'gained'
p3010
I17
sS'inconsiderate'
p3011
I4
sS'sister'
p3012
I9
sS'boards'
p3013
I4
sS'getting'
p3014
I124
sS'noiseyfbus'
p3015
I2
sS'consciousness'
p3016
I2
sS'dependence'
p3017
I3
sS'langer'
p3018
I1
sS'dependency'
p3019
I8
sS'insufficient'
p3020
I5
sS'glasses'
p3021
I3
sS'alliance'
p3022
I3
sS'letters'
p3023
I3
sS'commitment'
p3024
I5
sS'included'
p3025
I5
sS'guard'
p3026
I3
sS'weather'
p3027
I5
sS'promise'
p3028
I18
sS'tiny'
p3029
I10
sS'artists'
p3030
I3
sS'couldnt'
p3031
I6
sS'mississippi'
p3032
I6
sS'accused'
p3033
I3
sS'additional'
p3034
I1
sS'adolescent'
p3035
I3
sS'rushed'
p3036
I2
sS'apps'
p3037
I4
sS'noticed'
p3038
I14
sS'doing'
p3039
I120
sS'dropping'
p3040
I10
sS'biggest'
p3041
I8
sS'yrs'
p3042
I11
sS'plosone'
p3043
I1
sS'smid'
p3044
I11
sS'function'
p3045
I13
sS'alienated'
p3046
I3
sS'mkre'
p3047
I6
sS'triggered'
p3048
I6
sS'a7e7b8879cb7'
p3049
I8
sS'bus'
p3050
I3
sS'hw'
p3051
I12
sS'but'
p3052
I928
sS'blaming'
p3053
I5
sS'hi'
p3054
I12
sS'gain'
p3055
I10
sS'ear'
p3056
I8
sS"''i"
p3057
I4
sS'eat'
p3058
I31
sS'he'
p3059
I203
sS'count'
p3060
I6
sS'baptist'
p3061
I16
sS'made'
p3062
I37
sS'wise'
p3063
I9
sS'places'
p3064
I4
sS'arnt'
p3065
I3
sS'whether'
p3066
I13
sS'wish'
p3067
I109
sS'distract'
p3068
I13
sS'below'
p3069
I17
sS'convince'
p3070
I7
sS'limit'
p3071
I4
sS'woke'
p3072
I2
sS'problem'
p3073
I12
sS'pm'
p3074
I3
sS'minutes'
p3075
I6
sS'smprod'
p3076
I2
sS'recognize'
p3077
I10
sS'year'
p3078
I66
sS'slowing'
p3079
I5
sS'consumed'
p3080
I3
sS'beats'
p3081
I4
sS'periods'
p3082
I10
sS'hlf'
p3083
I5
sS'kissed'
p3084
I8
sS'campus'
p3085
I10
sS'inc'
p3086
I2
sS'spell'
p3087
I3
sS'compared'
p3088
I4
sS'rumors'
p3089
I9
sS'spit'
p3090
I5
sS'incredible'
p3091
I33
sS'theincidentaleconomist'
p3092
I1
sS'treatment'
p3093
I7
sS'40'
p3094
I11
sS'lately'
p3095
I136
sS'circstances'
p3096
I5
sS'guarantee'
p3097
I3
sS'crummy'
p3098
I4
sS'sick'
p3099
I27
sS'incredibly'
p3100
I11
sS'reckless'
p3101
I2
sS'hygge'
p3102
I1
sS'repeat'
p3103
I5
sS'monday'
p3104
I5
sS'veiw'
p3105
I4
sS'worker'
p3106
I5
sS'class'
p3107
I20
sS'embracing'
p3108
I1
sS'june'
p3109
I5
sS'variation'
p3110
I2
sS'stay'
p3111
I45
sS'kinda'
p3112
I3
sS'seismic'
p3113
I1
sS'friends'
p3114
I134
sS'socialized'
p3115
I1
sS'ghost'
p3116
I4
sS'validation'
p3117
I16
sS'fp3afuiv8ne'
p3118
I1
sS'using'
p3119
I18
sS'resolution'
p3120
I5
sS'blogs'
p3121
I5
sS'rule'
p3122
I3
sS'status'
p3123
I4
sS'diagnosis'
p3124
I4
sS'awake'
p3125
I6
sS'yell'
p3126
I9
sS'accidents'
p3127
I5
ssS'_mapping'
p3128
(dp3129
g18
I886
sg19
I1521
sg20
I787
sg21
I1423
sg22
I2350
sg23
I172
sg24
I2093
sg25
I1062
sg26
I267
sg27
I2660
sg28
I1673
sg29
I950
sg30
I2022
sg31
I2647
sg32
I1885
sg33
I2258
sg34
I2432
sg35
I2073
sg36
I1120
sg37
I387
sg38
I3045
sg39
I965
sg40
I2875
sg41
I1446
sg42
I2599
sg43
I2837
sg44
I1877
sg45
I344
sg46
I1482
sg47
I183
sg48
I2172
sg49
I1866
sg50
I346
sg51
I1375
sg52
I1231
sg53
I2592
sg54
I1295
sg55
I2403
sg56
I3071
sg57
I1266
sg58
I1950
sg59
I1648
sg60
I36
sg61
I1095
sg62
I2683
sg63
I1098
sg64
I211
sg65
I3057
sg66
I1794
sg67
I2415
sg68
I2708
sg69
I2134
sg70
I2066
sg71
I2418
sg72
I195
sg73
I1724
sg74
I3027
sg75
I1384
sg76
I1374
sg77
I1579
sg78
I380
sg79
I235
sg80
I3035
sg81
I15
sg82
I686
sg83
I88
sg84
I895
sg85
I194
sg86
I698
sg87
I2536
sg88
I2706
sg89
I3083
sg90
I274
sg91
I1884
sg92
I1997
sg93
I714
sg94
I391
sg95
I1259
sg96
I3087
sg97
I2777
sg98
I1205
sg99
I1382
sg100
I2005
sg101
I396
sg102
I1040
sg103
I1262
sg104
I3030
sg105
I576
sg106
I2013
sg107
I1088
sg108
I2586
sg109
I1887
sg110
I456
sg111
I1136
sg112
I572
sg113
I20
sg114
I2568
sg115
I1106
sg116
I906
sg117
I1742
sg118
I3097
sg119
I149
sg120
I2394
sg121
I984
sg122
I2363
sg123
I2325
sg124
I444
sg125
I880
sg126
I254
sg127
I2539
sg128
I732
sg129
I1056
sg130
I2609
sg131
I921
sg132
I2353
sg133
I1856
sg134
I422
sg135
I411
sg136
I1711
sg137
I240
sg138
I675
sg139
I1675
sg140
I1672
sg141
I596
sg142
I687
sg143
I1882
sg144
I2944
sg145
I2999
sg146
I1444
sg147
I137
sg148
I440
sg149
I2946
sg150
I1107
sg151
I888
sg152
I2681
sg153
I1454
sg154
I2529
sg155
I2576
sg156
I749
sg157
I95
sg158
I1654
sg159
I1265
sg160
I1257
sg161
I323
sg162
I1774
sg163
I2974
sg164
I1417
sg165
I2691
sg166
I2934
sg167
I35
sg168
I1972
sg169
I2684
sg170
I2512
sg171
I306
sg172
I2268
sg173
I635
sg174
I2530
sg175
I1198
sg176
I204
sg177
I138
sg178
I2648
sg179
I209
sg180
I2605
sg181
I577
sg182
I838
sg183
I2982
sg184
I61
sg185
I2311
sg186
I3072
sg187
I1226
sg188
I2414
sg189
I2651
sg190
I2421
sg191
I58
sg192
I622
sg193
I1908
sg194
I2712
sg195
I2099
sg196
I1670
sg197
I2537
sg198
I225
sg199
I429
sg200
I510
sg201
I1616
sg202
I694
sg203
I1131
sg204
I731
sg205
I2871
sg206
I1886
sg207
I2835
sg208
I2587
sg209
I2198
sg210
I831
sg211
I1956
sg212
I2
sg213
I2993
sg214
I2230
sg215
I1094
sg216
I2303
sg217
I1667
sg218
I1394
sg219
I1710
sg220
I2396
sg221
I2454
sg222
I3052
sg223
I203
sg224
I2840
sg225
I1520
sg226
I708
sg227
I3031
sg228
I2130
sg229
I641
sg230
I2742
sg231
I1889
sg232
I1650
sg233
I755
sg234
I1513
sg235
I763
sg236
I398
sg237
I1010
sg238
I2290
sg239
I190
sg240
I2083
sg241
I1302
sg242
I2338
sg243
I322
sg244
I661
sg245
I1822
sg246
I602
sg247
I578
sg248
I2051
sg249
I2244
sg250
I159
sg251
I2584
sg252
I140
sg253
I1919
sg254
I104
sg255
I1028
sg256
I222
sg257
I680
sg258
I2546
sg259
I2574
sg260
I767
sg261
I532
sg262
I437
sg263
I545
sg264
I637
sg265
I3004
sg266
I1782
sg267
I2830
sg268
I1827
sg269
I669
sg270
I3114
sg271
I2219
sg272
I2523
sg273
I579
sg274
I1640
sg275
I2271
sg276
I2449
sg277
I2241
sg278
I1013
sg279
I2623
sg280
I458
sg281
I934
sg282
I1652
sg283
I2514
sg284
I762
sg285
I339
sg286
I1984
sg287
I1784
sg288
I917
sg289
I1460
sg290
I747
sg291
I3098
sg292
I1183
sg293
I2132
sg294
I1391
sg295
I2704
sg296
I835
sg297
I2205
sg298
I1165
sg299
I2620
sg300
I2318
sg301
I3006
sg302
I1241
sg303
I234
sg304
I944
sg305
I656
sg306
I1274
sg307
I2954
sg308
I2015
sg309
I1158
sg310
I2433
sg311
I855
sg312
I1476
sg313
I253
sg314
I1975
sg315
I970
sg316
I1623
sg317
I806
sg318
I1453
sg319
I2329
sg320
I1091
sg321
I1610
sg322
I1848
sg323
I2654
sg324
I2772
sg325
I556
sg326
I3064
sg327
I1092
sg328
I454
sg329
I3088
sg330
I1299
sg12
I0
sg332
I1425
sg333
I2600
sg334
I1469
sg335
I753
sg336
I3063
sg337
I1498
sg338
I324
sg339
I1864
sg340
I132
sg341
I1763
sg342
I2424
sg343
I945
sg344
I2261
sg345
I1395
sg346
I3089
sg347
I1191
sg348
I584
sg349
I213
sg350
I1319
sg351
I2505
sg352
I2158
sg353
I99
sg354
I3049
sg355
I1849
sg356
I2689
sg357
I1836
sg358
I3108
sg359
I1615
sg360
I310
sg361
I1759
sg362
I757
sg363
I293
sg364
I200
sg365
I744
sg366
I1434
sg367
I2361
sg368
I2144
sg369
I2189
sg370
I166
sg371
I294
sg372
I1129
sg373
I1455
sg374
I648
sg375
I1850
sg376
I770
sg377
I1867
sg378
I2596
sg379
I1419
sg380
I3104
sg381
I2216
sg382
I1012
sg383
I1027
sg384
I2274
sg385
I192
sg386
I2487
sg387
I2856
sg388
I87
sg389
I407
sg390
I1379
sg391
I2319
sg392
I820
sg393
I2210
sg394
I2810
sg395
I1494
sg396
I2456
sg397
I2266
sg398
I1475
sg399
I911
sg400
I1357
sg401
I2983
sg402
I1842
sS'm'
I1339
sg403
I1535
sg404
I837
sg405
I85
sg406
I1036
sg407
I2698
sg408
I2425
sg409
I795
sg410
I1150
sg411
I996
sg412
I2931
sg413
I425
sg414
I1913
sg415
I642
sg416
I1621
sg417
I2650
sg418
I1702
sg419
I224
sg420
I982
sg421
I1619
sg422
I2989
sg423
I2157
sg424
I2053
sg425
I494
sg426
I2581
sg427
I624
sg428
I621
sg429
I1393
sg430
I1320
sg431
I2185
sg432
I2355
sg433
I3111
sg434
I2404
sg435
I69
sg436
I3082
sg437
I3110
sg438
I904
sg439
I2522
sg440
I2235
sg441
I381
sg442
I1970
sg443
I186
sg444
I1354
sg445
I1581
sg446
I1514
sg447
I1563
sg448
I2277
sg449
I2672
sg450
I1115
sg451
I2341
sg452
I2380
sg453
I384
sg454
I75
sg455
I1922
sg456
I1530
sg457
I2055
sg458
I1104
sg459
I2702
sg460
I1741
sg461
I2232
sg462
I2218
sg463
I1793
sg464
I3133
sg465
I645
sg466
I713
sg467
I540
sg468
I1055
sg469
I1293
sg470
I1404
sg471
I2822
sg472
I488
sg473
I2088
sg474
I438
sg475
I1665
sg476
I2291
sg477
I985
sg478
I2103
sg479
I775
sg480
I2473
sg481
I1432
sg482
I1002
sg483
I1802
sS'r'
I2959
sg484
I2634
sg485
I2795
sg486
I1172
sg487
I936
sg488
I513
sg489
I2108
sg490
I377
sg491
I1986
sg492
I785
sg493
I541
sg494
I1717
sg495
I860
sg496
I141
sg497
I3025
sg498
I741
sg499
I1605
sg500
I2322
sg501
I1182
sg502
I2180
sg503
I2513
sg504
I1269
sg505
I2438
sg506
I1141
sg507
I1426
sg508
I1588
sg509
I597
sg510
I1751
sg511
I818
sg512
I1685
sg513
I1043
sg514
I2646
sg515
I263
sg516
I474
sg517
I1491
sg518
I581
sg519
I2273
sg520
I2475
sg521
I2658
sg522
I1167
sg523
I1760
sg524
I331
sg525
I123
sg526
I1096
sg527
I121
sg528
I924
sg529
I706
sg530
I268
sg531
I2891
sg532
I931
sg533
I1613
sg534
I2948
sg535
I2614
sg536
I1143
sg537
I1536
sg538
I68
sg539
I2042
sg540
I1778
sg541
I2652
sg542
I1318
sg543
I2034
sg544
I3051
sg545
I427
sg546
I457
sg547
I31
sg548
I922
sg549
I1840
sg550
I2105
sg551
I1169
sg552
I2039
sg553
I1577
sS'n'
I2656
sg554
I2778
sg555
I1739
sg556
I1429
sg557
I1893
sg558
I1562
sg559
I2106
sg560
I3069
sg561
I1220
sg562
I2816
sg563
I353
sg564
I1176
sg565
I3008
sg566
I2458
sg567
I1701
sg568
I74
sg569
I22
sg570
I2553
sg571
I1743
sg572
I1402
sg573
I188
sg574
I647
sg575
I284
sg576
I1368
sg577
I39
sg578
I1149
sg579
I3034
sg580
I111
sg581
I2971
sg582
I2735
sg583
I2926
sg584
I2697
sg585
I515
sg586
I272
sg587
I2783
sg588
I1400
sg589
I125
sg590
I3044
sg591
I832
sg592
I1859
sg593
I3090
sg594
I716
sg595
I1030
sg596
I2431
sg597
I1153
sg598
I3116
sg599
I1936
sg600
I2939
sg601
I229
sg602
I2579
sg603
I1181
sg604
I1114
sg605
I516
sg606
I2935
sg607
I829
sg608
I2854
sg609
I1112
sg610
I2997
sg611
I2120
sg612
I2677
sg613
I975
sg614
I1598
sg615
I273
sg616
I1962
sg617
I40
sg618
I2992
sg619
I1978
sg620
I603
sg621
I2012
sg622
I2924
sg623
I29
sg624
I1163
sg625
I1967
sg626
I2700
sg627
I3055
sg628
I1296
sg629
I634
sg630
I2718
sg631
I2092
sg632
I1035
sg633
I1558
sg634
I723
sg635
I2309
sg636
I1858
sg637
I1933
sg638
I2428
sg639
I185
sg640
I2020
sg641
I1282
sg642
I2942
sg643
I813
sg644
I2317
sg645
I152
sg646
I1047
sg647
I2760
sg648
I1128
sg649
I2249
sg650
I376
sg651
I2941
sg652
I2366
sg653
I1517
sg654
I1168
sg655
I1049
sg656
I1342
sg657
I938
sg658
I2267
sg659
I3078
sg660
I1109
sg661
I52
sg662
I2657
sg663
I2819
sg664
I2604
sg665
I261
sg666
I165
sg667
I292
sg668
I651
sg669
I71
sg670
I2191
sg671
I844
sg672
I2002
sg673
I2460
sg674
I1940
sg675
I2740
sg676
I1213
sg677
I696
sg678
I2717
sg679
I836
sg680
I2227
sg681
I34
sg682
I1026
sg683
I2757
sg684
I2666
sg685
I1550
sg686
I2834
sg687
I1543
sg688
I393
sg689
I1438
sg690
I1235
sg691
I605
sg692
I1597
sg693
I898
sg694
I1938
sg695
I3007
sg696
I1955
sg697
I1217
sg698
I1061
sg699
I2734
sg700
I2471
sg701
I1085
sg702
I2195
sg703
I2958
sg704
I3032
sg705
I2240
sg706
I280
sg707
I2296
sg708
I11
sg709
I1377
sg710
I2729
sg711
I2346
sg712
I2500
sg713
I707
sg714
I2617
sg715
I1489
sg716
I1410
sg717
I2910
sg718
I1253
sg719
I1645
sg720
I2292
sg721
I559
sg722
I777
sg723
I773
sg724
I2493
sg725
I3053
sg726
I2133
sg727
I1313
sg728
I241
sg729
I643
sg730
I327
sg731
I2625
sg732
I1166
sg733
I2820
sg734
I863
sg735
I1051
sg736
I816
sg737
I2245
sg738
I588
sg739
I798
sg740
I1020
sg741
I2116
sg742
I1001
sg743
I1005
sg744
I1356
sg745
I739
sg746
I3013
sg747
I131
sg748
I1888
sg749
I91
sg750
I205
sg751
I365
sg752
I568
sg753
I2844
sg754
I1359
sg755
I2237
sg756
I2100
sg757
I2896
sg758
I990
sg759
I2956
sg760
I1507
sg761
I414
sg762
I2918
sg763
I2344
sg764
I2369
sg765
I2177
sg766
I2680
sg767
I1898
sg768
I490
sg769
I2142
sg770
I2035
sg771
I2069
sg772
I1440
sg773
I543
sg774
I1358
sg775
I1612
sg776
I2832
sg777
I768
sg778
I1949
sg779
I1473
sg780
I536
sg781
I1135
sg782
I736
sg783
I2234
sg784
I2899
sg785
I1603
sg786
I953
sg787
I1464
sg788
I2911
sg789
I2826
sg790
I857
sg791
I309
sg792
I1170
sg793
I3120
sg794
I269
sg795
I1240
sg796
I2113
sg797
I2624
sg798
I156
sg799
I2938
sg800
I1823
sg801
I633
sg802
I960
sg803
I2247
sg804
I181
sg805
I1283
sg806
I2759
sg807
I236
sg808
I1749
sg809
I498
sg810
I1081
sg811
I1843
sg812
I2598
sg813
I385
sg814
I1079
sg815
I2577
sg816
I2895
sg817
I719
sg818
I252
sg819
I1546
sg820
I2413
sg821
I2462
sg822
I2766
sg823
I319
sg824
I2955
sg825
I1459
sg826
I2503
sg827
I766
sg828
I1496
sg829
I1914
sg830
I3056
sg831
I1568
sg832
I86
sg833
I2104
sg834
I702
sg835
I1730
sg836
I2280
sg837
I1644
sg838
I2310
sg839
I2916
sg840
I290
sg841
I1948
sg842
I1059
sg843
I2202
sg844
I1431
sg845
I1620
sg846
I2920
sg847
I1566
sg848
I282
sg849
I1697
sg850
I2365
sg851
I2098
sg852
I2632
sg853
I2877
sg854
I1852
sg855
I47
sg856
I2665
sg857
I1844
sg858
I1982
sg859
I2575
sg860
I2547
sg861
I1124
sg862
I136
sg863
I565
sg864
I2622
sg865
I590
sg866
I1117
sg867
I678
sg868
I196
sg869
I2367
sg870
I470
sg871
I1833
sg872
I336
sg873
I2076
sg874
I2580
sg875
I2761
sg876
I119
sg877
I408
sg878
I1906
sg879
I2141
sg880
I1244
sg881
I198
sg882
I2758
sg883
I1695
sg884
I1696
sg885
I2986
sg886
I49
sg887
I1383
sg888
I997
sg889
I1542
sg890
I2047
sg891
I570
sg892
I1815
sg893
I727
sg894
I915
sg895
I2328
sg896
I1811
sg897
I1803
sg898
I987
sg899
I1472
sg900
I591
sg901
I1499
sg902
I1349
sg903
I2269
sg904
I2963
sg905
I2254
sg906
I1977
sS'v'
I905
sg907
I1756
sg908
I1323
sg909
I2836
sg910
I1525
sg911
I298
sg912
I1934
sg913
I1736
sg914
I525
sg915
I2014
sg916
I343
sg917
I2411
sg918
I949
sg919
I852
sg920
I1014
sg921
I2619
sg922
I2786
sg923
I2399
sg924
I1725
sg925
I872
sg926
I1237
sg927
I257
sg928
I1361
sg929
I1786
sg930
I2119
sg931
I1470
sg932
I2743
sg933
I117
sg934
I3106
sg935
I2320
sg936
I2981
sg937
I2602
sg938
I2118
sg939
I2667
sg940
I2595
sg941
I2405
sg942
I1527
sg943
I2594
sg944
I2583
sg945
I571
sg946
I2901
sg947
I847
sg948
I614
sg949
I2061
sg950
I477
sg951
I151
sg952
I2876
sg953
I243
sg954
I2489
sg2334
I1034
sg956
I2965
sg957
I1203
sg958
I469
sg959
I900
sg960
I57
sg961
I1057
sg962
I2354
sg963
I1207
sg964
I2914
sg965
I1548
sg966
I475
sg967
I994
sg968
I1964
sg969
I308
sg970
I2738
sg971
I1389
sg972
I2378
sg973
I453
sg974
I115
sg975
I2720
sg976
I355
sg977
I1878
sg978
I817
sg979
I370
sg980
I1942
sg981
I1331
sg982
I1333
sg983
I349
sg984
I2231
sg985
I995
sg986
I1284
sg987
I1441
sS'o'
I1576
sg988
I952
sg989
I1003
sg990
I2767
sg991
I1248
sg992
I2784
sg993
I2326
sg994
I106
sg995
I2923
sS'1'
I1075
sg996
I1691
sg997
I531
sg998
I2892
sg999
I1418
sg1000
I2897
sg1001
I839
sg1002
I759
sg1003
I1624
sg1004
I1443
sg1005
I881
sg1006
I1484
sg1007
I1024
sg1008
I220
sg1009
I2196
sg1010
I2890
sg1011
I1335
sg1012
I657
sg1013
I443
sg1014
I1177
sg1015
I594
sg1016
I2409
sg1017
I464
sg1018
I1004
sg1019
I259
sg1020
I728
sg1021
I1647
sg1022
I668
sg1023
I679
sg1024
I1155
sg1025
I1826
sg1026
I1943
sS'q'
I2441
sg1027
I1468
sg1028
I32
sg1029
I2763
sg1030
I2803
sg1031
I2780
sg1032
I441
sg1033
I1874
sg1034
I2912
sg1035
I1480
sg1036
I126
sg1037
I2747
sg1038
I1238
sg1039
I1502
sg1040
I189
sg1041
I1544
sg1042
I187
sg1043
I128
sg1044
I2046
sg1045
I972
sg1046
I799
sg1047
I1757
sg1048
I992
sg1049
I560
sg1050
I2272
sg1051
I1528
sg1052
I2996
sg1053
I2167
sg1054
I1737
sg1055
I1931
sg1056
I2520
sg1057
I313
sg1058
I2122
sg1059
I1097
sg1060
I193
sg1061
I2150
sg1062
I495
sg1063
I3119
sg1064
I1920
sg1065
I1765
sg1066
I1817
sg1067
I1436
sg1068
I147
sg1069
I191
sg1070
I878
sg1071
I1617
sg1072
I1029
sg1073
I930
sg1074
I1872
sg1075
I2645
sg1076
I1847
sg1077
I402
sg1078
I2933
sg1079
I1017
sg1080
I2980
sg1081
I1946
sg1082
I1766
sg1083
I1145
sg1084
I2936
sg1085
I242
sg1086
I2788
sg1087
I1871
sg1088
I1345
sg1089
I2128
sg1090
I811
sg1091
I1016
sg1092
I317
sg1093
I1715
sg1094
I1589
sg1095
I598
sg1096
I2811
sg1097
I2135
sg1098
I2265
sg1099
I2627
sg1100
I2408
sg1101
I2170
sg1102
I2636
sg1103
I38
sg1104
I504
sg1105
I574
sg1106
I521
sg1107
I2287
sg1108
I90
sg1109
I2693
sg1110
I472
sg1111
I957
sg1112
I3
sg1113
I2640
sg1114
I2629
sg1115
I1229
sg1116
I1102
sg1117
I2360
sg1118
I2664
sg1119
I583
sg1120
I3039
sg1121
I2883
sg1122
I2773
sg1123
I2028
sg1124
I1574
sg1125
I386
sg1126
I2080
sg1127
I2782
sg1128
I76
sg1129
I287
sg1130
I607
sg1131
I3081
sg1132
I718
sg1133
I77
sg1134
I717
sg1135
I342
sg1136
I1228
sg1137
I2618
sg1138
I1288
sg1139
I2859
sg1140
I1533
sg1141
I118
sg1142
I201
sg1143
I1311
sg1144
I413
sg1145
I1337
sg1146
I417
sg1147
I899
sg1148
I2243
sg1149
I859
sg1150
I16
sg1151
I65
sg1152
I2331
sg1153
I735
sg1154
I439
sg1155
I217
sg1156
I2798
sg1157
I2306
sg1158
I54
sS'2'
I468
sg1159
I1111
sg1160
I1208
sg1161
I2200
sg1162
I1171
sg1163
I1353
sg1164
I1215
sg1165
I1720
sg1166
I555
sg1167
I1252
sg1168
I1611
sg1169
I19
sg1170
I2151
sg1171
I1099
sg1172
I761
sg1173
I506
sg1174
I1083
sg1175
I162
sg1176
I528
sg1177
I2192
sg1178
I446
sg1179
I1387
sg1180
I2295
sg1181
I2687
sg1182
I424
sg1183
I92
sg1184
I451
sg1185
I1636
sg1186
I262
sg1187
I925
sg1188
I955
sg1189
I683
sg1190
I1430
sg1191
I1789
sg1192
I784
sg1193
I2388
sg1194
I2737
sg1195
I17
sg1196
I2389
sg1197
I726
sg1198
I712
sg1199
I608
sg1200
I30
sg1201
I954
sg1202
I255
sg1203
I562
sg1204
I1712
sg1205
I1753
sg1206
I1879
sg1207
I56
sg1208
I2190
sg1209
I2526
sg1210
I1466
sg1211
I2450
sg1212
I388
sg1213
I2593
sg1214
I2111
sg1215
I593
sg1216
I1230
sg1217
I1308
sg1218
I1580
sg1219
I1037
sg1220
I1450
sg1221
I722
sg1222
I959
sg1223
I1246
sg1224
I2054
sg1225
I89
sg1226
I2626
sg1227
I2238
sg1228
I2569
sg1229
I1364
sg1230
I2731
sg1231
I2765
sg1232
I740
sg1233
I1800
sg1234
I50
sg1235
I2851
sg1236
I1582
sg1237
I1980
sg1238
I2714
sg1239
I1064
sg1240
I2606
sg1241
I1693
sg1242
I1126
sg1243
I1362
sg1244
I431
sg1245
I2332
sg1246
I1369
sg1247
I2506
sg1248
I769
sg1249
I219
sg1250
I682
sg1251
I2021
sg1252
I2248
sg1253
I2252
sg1254
I2461
sg1255
I822
sg1256
I3128
sg1257
I619
sg1258
I369
sg1259
I746
sg1260
I2402
sg1261
I419
sg1262
I2217
sg1263
I821
sg1264
I1788
sg1265
I1608
sg1266
I1025
sg1267
I371
sg1268
I1761
sg1269
I3094
sg1270
I2771
sg1271
I1929
sg1272
I674
sg1273
I2779
sg1274
I833
sg1275
I496
sg1276
I2155
sg1277
I1221
sg1278
I557
sg1279
I1916
sg1280
I476
sg1281
I2846
sg1282
I1305
sg1283
I1261
sg1284
I1740
sg1285
I2739
sg1286
I2131
sg1287
I2597
sg1288
I2750
sg1289
I665
sg1290
I2945
sg1291
I920
sg1292
I2278
sg1293
I794
sg1294
I902
sg1295
I103
sg1296
I3066
sg1297
I2229
sg1298
I1658
sg1299
I916
sg1300
I2869
sg1301
I3130
sS'3'
I764
sg1302
I1959
sg1303
I1534
sg1304
I1254
sg1305
I734
sg1306
I2821
sg1307
I1541
sg1308
I701
sg1309
I2746
sg1310
I2790
sg1311
I2373
sg1312
I1875
sg1313
I942
sg1314
I871
sg1315
I2003
sg1316
I778
sg1317
I2608
sg1318
I1744
sg1319
I1185
sg1320
I923
sg1321
I640
sg1322
I2070
sS's'
I1575
sg1323
I1646
sg1324
I2060
sg1325
I2074
sg1326
I1416
sg1327
I212
sg1328
I1053
sg1329
I1995
sg1330
I3048
sg1331
I1523
sg1332
I2688
sg1333
I569
sg1334
I2376
sg1335
I436
sg1336
I1985
sg1337
I2612
sg1338
I1748
sg1339
I1947
sg1340
I2358
sg1341
I705
sg1342
I3062
sg1343
I2253
sg1344
I2827
sg1345
I3096
sg1346
I1957
sg1347
I2879
sg1348
I223
sg1349
I2102
sg1350
I2156
sg1351
I2797
sg1352
I2486
sg1353
I3121
sg1354
I632
sg1355
I1892
sg1356
I2976
sg1357
I3107
sg1358
I738
sg1359
I631
sg1360
I134
sg1361
I1641
sg1362
I199
sg1363
I105
sg1364
I2251
sg1365
I2710
sg1366
I283
sg1367
I2524
sg1368
I1787
sg1369
I1518
sg1370
I2478
sg1371
I1125
sg1372
I321
sg1373
I819
sg1374
I1493
sg1375
I295
sg1376
I1963
sg1377
I2510
sg1378
I1684
sg1379
I2236
sg1380
I2781
sg1381
I742
sg1382
I897
sg1383
I700
sg1384
I2086
sg1385
I2276
sg1386
I1186
sg1387
I405
sg1388
I1627
sg1389
I599
sg1390
I1806
sg1391
I534
sg1392
I2379
sg1393
I1344
sg1394
I582
sg1395
I765
sg1396
I489
sg1397
I289
sg1398
I2730
sg1399
I449
sg1400
I1890
sg1401
I2904
sg1402
I2967
sg1403
I1065
sg1404
I1805
sg1405
I653
sg1406
I2166
sg1407
I1346
sg1408
I2233
sg1409
I2978
sg1410
I2222
sg1411
I2129
sg1412
I609
sg1413
I514
sg1414
I2206
sg1415
I2212
sg1416
I499
sg1417
I1587
sg1418
I973
sg1419
I1901
sg1420
I1477
sg1421
I501
sg1422
I1855
sg1423
I1272
sg1424
I409
sg1425
I1212
sg1426
I958
sg1427
I928
sg1428
I2447
sg1429
I1939
sg1430
I834
sg1431
I2570
sg1432
I629
sg1433
I2511
sg1434
I1572
sg1435
I392
sg1436
I1224
sg1437
I692
sg1438
I2026
sg1439
I1306
sg1440
I176
sg1441
I801
sg1442
I2246
sg1443
I281
sg1444
I486
sg1445
I1637
sg1446
I620
sg1447
I1776
sg1448
I1154
sg1449
I2809
sg1450
I1011
sg1451
I142
sg1452
I1009
sg1453
I249
sg1454
I2633
sg1455
I404
sg1456
I1632
sg1457
I177
sg1458
I830
sg1459
I2043
sg1460
I1234
sg1461
I2994
sg1462
I663
sg1463
I1406
sg1464
I3011
sg1465
I397
sg1466
I2571
sg1467
I143
sg1468
I1485
sg1469
I754
sg1470
I2907
sg1471
I2333
sg1472
I2146
sg1473
I2957
sg1474
I1549
sg1475
I2774
sg1476
I1960
sg1477
I1067
sg1478
I2065
sg1479
I1365
sg1480
I2482
sg1481
I2194
sg1482
I2947
sg1483
I1041
sg1484
I974
sg1485
I1861
sg1486
I919
sg1487
I2794
sg1488
I341
sg1489
I3042
sg1490
I434
sg1491
I2188
sg1492
I133
sg1493
I788
sg1494
I1937
sg1495
I1910
sg1496
I6
sg1497
I2872
sg1498
I2062
sg1499
I1289
sg1500
I2662
sg1501
I2463
sg1502
I2496
sg1503
I2559
sg1504
I843
sg1505
I789
sg1506
I932
sg1507
I1046
sg1508
I171
sg1509
I233
sg1510
I1291
sg1511
I2383
sg1512
I2148
sg1513
I326
sg1514
I1202
sg1515
I2401
sg1516
I2508
sg1517
I1846
sg1518
I1045
sg1519
I2977
sg1520
I690
sg1521
I2800
sg1522
I174
sg1523
I2087
sg1524
I333
sg1525
I1618
sg1526
I1347
sg1527
I1260
sg1528
I1281
sg1529
I2059
sg1530
I1044
sg1531
I2711
sg1532
I1515
sg1533
I508
sg1534
I2494
sg1535
I2215
sg1536
I636
sg1537
I2564
sg1538
I1801
sg1539
I1941
sg1540
I2932
sg1541
I812
sg1542
I630
sg1543
I161
sg1544
I1561
sg1545
I943
sg1546
I1439
sg1547
I1258
sg1548
I2725
sg1549
I2893
sg1550
I2557
sg1551
I3123
sg1552
I216
sg1553
I1668
sg1554
I1953
sg1555
I561
sg1556
I1895
sg1557
I1392
sg1558
I101
sg1559
I2484
sg1560
I1147
sg1561
I1686
sg1562
I347
sg1563
I2391
sg1564
I13
sg1565
I214
sg1566
I481
sg1567
I72
sg1568
I51
sg1569
I1989
sg1570
I330
sg1571
I2498
sg1572
I1415
sg1573
I1492
sg1574
I2541
sg1575
I354
sg1576
I3074
sg1577
I1414
sg1578
I1604
sg1579
I1659
sg1580
I2915
sg1581
I37
sS'5'
I699
sg1582
I112
sg1583
I2364
sg1584
I21
sg1585
I2207
sg1586
I1206
sg1587
I2713
sg1588
I1511
sg1589
I1838
sg1590
I523
sg1591
I896
sg1592
I1355
sg1593
I2527
sg1594
I977
sg1595
I2452
sg1596
I776
sg1597
I1851
sg1598
I1200
sg1599
I395
sg1600
I1445
sg1601
I1825
sg1602
I2299
sS'u'
I1338
sg1603
I1483
sg1604
I1343
sg1605
I182
sg1606
I23
sg1607
I1770
sg1608
I1907
sg1609
I1642
sg1610
I2112
sg1611
I493
sg1612
I1569
sg1613
I334
sg1614
I2081
sg1615
I2504
sg1616
I711
sg1617
I667
sg1618
I1239
sg1619
I307
sg1620
I197
sg1621
I2842
sg1622
I1184
sg1623
I2839
sg1624
I2357
sg1625
I1178
sg1626
I14
sg1627
I3075
sg1628
I1201
sg1629
I173
sg1630
I2011
sg1631
I2748
sg1632
I276
sg1633
I2152
sg1634
I2611
sg1635
I2214
sg1636
I793
sg1637
I625
sg1638
I357
sg1639
I612
sg1640
I2255
sg1641
I748
sg1642
I1505
sg1643
I2064
sg1644
I2533
sg1645
I2440
sg1646
I1524
sg1647
I81
sg1648
I2297
sg1649
I2534
sg1650
I1990
sg1651
I681
sg1652
I1421
sg1653
I1705
sg1654
I2186
sg1655
I2966
sg1656
I2470
sg1657
I9
sg1658
I3112
sg1659
I2446
sg1660
I2878
sg1661
I1653
sg1662
I2094
sg1663
I2419
sg1664
I1540
sg1665
I43
sg1666
I1433
sg1667
I1156
sg1668
I1798
sg1669
I1678
sg1670
I2016
sg1671
I1350
sg1672
I358
sg1673
I332
sg1674
I2610
sg1675
I989
sg1676
I856
sg1677
I1138
sg1678
I2293
sg1679
I367
sg1680
I2149
sg1681
I3118
sg1682
I1519
sg1683
I2006
sg1684
I227
sg1685
I155
sg1686
I2732
sg1687
I1537
sg1688
I1983
sg1689
I2805
sg1690
I153
sg1691
I909
sg1692
I2991
sg1693
I664
sg1694
I266
sg1695
I1925
sg1696
I2159
sg1697
I1078
sg1698
I671
sg1699
I1428
sg1700
I1729
sg1701
I1479
sg1702
I239
sg1703
I2552
sg1704
I2115
sg1705
I2181
sg1706
I2886
sg1707
I1991
sS'6'
I10
sg1708
I715
sg1709
I421
sg1710
I940
sg1711
I465
sg1712
I1378
sg1713
I2582
sg1714
I3005
sg1715
I3047
sg1716
I48
sg1717
I2264
sg1718
I1723
sg1719
I1880
sg1720
I827
sg1721
I2423
sg1722
I864
sg1723
I2485
sg1724
I1435
sg1725
I1698
sg1726
I2676
sg1727
I1771
sg1728
I2330
sg1729
I1996
sg1730
I265
sg1731
I3024
sg1732
I1474
sg1733
I228
sg1734
I2643
sg1735
I1452
sg1736
I2715
sg1737
I1954
sg1738
I2228
sg1739
I1649
sg1740
I2848
sg1741
I2284
sg1742
I2019
sg1743
I1545
sg1744
I538
sg1745
I2336
sg1746
I1584
sg1747
I1420
sg1748
I1052
sg1749
I3037
sg1750
I1285
sg1751
I2902
sg1752
I2894
sg1753
I1779
sg1754
I2124
sg1755
I178
sg1756
I824
sg1757
I964
sg1758
I1341
sg1759
I1019
sg1760
I2356
sg1761
I2343
sg1762
I1930
sg1763
I1328
sg1764
I2139
sg1765
I2659
sg1766
I1835
sg1767
I3102
sg1768
I148
sg1769
I861
sg1770
I2048
sg1771
I2979
sg1772
I361
sg1773
I2528
sg1774
I2377
sg1775
I2880
sg1776
I2395
sg1777
I1458
sg1778
I202
sg1779
I1267
sg1780
I2925
sg1781
I2024
sS'a'
I4
sg1782
I1735
sg1783
I2638
sg1784
I2566
sg1785
I1054
sg1786
I2670
sg1787
I2041
sg1788
I1018
sg1789
I2663
sg1790
I107
sg1791
I2368
sg1792
I589
sg1793
I2674
sg1794
I693
sg1795
I2815
sg1796
I2289
sg1797
I1467
sg1798
I935
sg1799
I2057
sg1800
I1159
sg1801
I96
sg1802
I246
sg1803
I1973
sg1804
I1303
sg1805
I374
sg1806
I1772
sg1807
I2474
sg1808
I2694
sg1809
I1322
sg1810
I1316
sg1811
I2990
sg1812
I1606
sg1813
I529
sg1814
I459
sg1815
I1687
sg1816
I1679
sg1817
I751
sg1818
I2585
sg1819
I2882
sg1820
I1399
sg1821
I993
sg1822
I373
sg1823
I1863
sg1824
I2315
sg1825
I848
sg1826
I1674
sg1827
I1243
sg1828
I1373
sg1829
I2165
sg1830
I2655
sg1831
I2692
sg1832
I2549
sg1833
I2543
sg1834
I2756
sg1835
I426
sg1836
I1721
sg1837
I730
sg1838
I2550
sg1839
I790
sg1840
I841
sg1841
I215
sg1842
I2429
sg1843
I1360
sg1844
I3015
sg1845
I366
sg1846
I1976
sg1847
I1565
sg1848
I616
sg1849
I100
sg1850
I7
sg1851
I999
sg1852
I1123
sg1853
I33
sg1854
I1363
sg1855
I80
sg1856
I2847
sg1857
I548
sg1858
I2199
sg1859
I1926
sg1860
I611
sg1861
I825
sg1862
I363
sg1863
I685
sg1864
I2056
sg1865
I450
sg1866
I2964
sg1867
I445
sg1868
I2400
sg1869
I1918
sg1870
I433
sg1871
I184
sS'7'
I375
sg1872
I2679
sg331
I2669
sg1873
I2168
sg1874
I1987
sg1875
I1398
sg1876
I737
sg1877
I1210
sg1878
I1656
sg1879
I1161
sg1880
I1865
sg1881
I320
sg1882
I207
sg1883
I894
sg1884
I1704
sg1885
I876
sg1886
I3003
sg1887
I2335
sg1888
I2040
sg1889
I1348
sg1890
I315
sg1891
I2975
sS'w'
I870
sg1892
I2563
sg1893
I2444
sg1894
I1327
sg1895
I2147
sg1896
I2544
sg1897
I1204
sg1898
I130
sg1899
I2499
sg1900
I586
sg1901
I2182
sg1902
I18
sg1903
I551
sg1904
I2340
sg1905
I1023
sg1906
I2382
sg1907
I807
sg1908
I303
sg1909
I2464
sg1910
I175
sg1911
I2703
sg1912
I3134
sg1913
I2025
sg1914
I948
sg1915
I672
sg1916
I3109
sg1917
I2162
sg1918
I1708
sg1919
I2868
sg1920
I1465
sg1921
I79
sg1922
I658
sg1923
I1853
sg1924
I2864
sg1925
I3085
sg1926
I2808
sg1927
I3100
sg1928
I1699
sg1929
I335
sg1930
I1680
sg1931
I1993
sg1932
I883
sg1933
I277
sg1934
I2337
sg1935
I875
sg1936
I1707
sg1937
I814
sg1938
I2455
sg1939
I575
sg1940
I1988
sg1941
I956
sg1942
I1089
sg1943
I554
sg1944
I2107
sg1945
I2831
sg1946
I480
sg1947
I2555
sg1948
I1463
sg1949
I1532
sg1950
I2479
sg1951
I1222
sg1952
I1495
sg1953
I1033
sg1954
I1810
sg1955
I2637
sg1956
I2578
sg1957
I2796
sg1958
I1718
sg1959
I2410
sg1960
I3000
sg1961
I1828
sg1962
I580
sg1963
I866
sg1964
I2940
sg1965
I1157
sg1966
I2509
sg1967
I1552
sg1968
I93
sg1969
I2900
sg1970
I2305
sg1971
I2001
sg1972
I3041
sg1973
I1799
sg1974
I610
sg1975
I1251
sg1976
I2084
sg1977
I2017
sg1978
I1626
sg1979
I2072
sg1980
I808
sg1981
I1554
sg1982
I1981
sg1983
I743
sg1984
I2302
sg1985
I646
sg1986
I2573
sg1987
I2453
sg1988
I312
sg1989
I461
sg1990
I1310
sg1991
I1727
sg1992
I2313
sg1993
I644
sg1994
I271
sg1995
I891
sg1996
I1286
sg1997
I415
sg1998
I1407
sg1999
I1000
sg2000
I1785
sg2001
I615
sg2002
I1522
sg2003
I2407
sg2004
I206
sg2005
I2906
sg2006
I1411
sg2007
I2437
sg2008
I2675
sg2009
I2307
sg2010
I652
sg2011
I1087
sg2012
I563
sg2013
I1592
sg2014
I350
sg2015
I237
sS'8'
I1334
sg2016
I2161
sg2017
I846
sg2018
I394
sg2019
I231
sg2020
I2969
sg2021
I937
sg2022
I2392
sg2023
I2085
sg2024
I2850
sg2025
I2009
sg2026
I167
sg2027
I1881
sg2028
I1100
sg2029
I1127
sg2030
I432
sg2031
I533
sg2032
I2476
sg2033
I962
sg2034
I247
sg2035
I2861
sg2036
I2733
sg2037
I1631
sg2038
I720
sS'x'
I1625
sg2039
I1639
sg2040
I1857
sg2041
I1814
sg2042
I2801
sg2043
I378
sg2044
I654
sg2045
I1249
sg2046
I3105
sg2047
I913
sg2048
I258
sg2049
I2316
sg2050
I2347
sg2051
I113
sg2052
I94
sg2053
I604
sg2054
I2531
sg2055
I2616
sg2056
I2857
sg2057
I1797
sg2058
I519
sg2059
I139
sg2060
I389
sg2061
I1497
sg2062
I2928
sg2063
I2457
sg2064
I1456
sg2065
I2988
sg2066
I221
sg2067
I1137
sg2068
I539
sg2069
I2490
sg2070
I1539
sg2071
I1992
sg2072
I1021
sg2073
I1279
sg2074
I2171
sg2075
I874
sg2076
I1790
sg2077
I1152
sg2078
I600
sg2079
I1773
sg2080
I3043
sg2081
I73
sg2082
I2551
sg2083
I552
sg2084
I1839
sg2085
I1590
sg2086
I2744
sg2087
I1294
sg2088
I3117
sg2089
I1690
sg2090
I2114
sg2091
I1808
sg2092
I230
sg2093
I302
sg2094
I666
sg2095
I1661
sg2096
I760
sg2097
I2921
sg2098
I804
sg2099
I3009
sg2100
I25
sg2101
I939
sg2102
I2785
sg2103
I1629
sg2104
I1722
sg2105
I1329
sg2106
I2468
sg2107
I2968
sg2108
I520
sg2109
I2560
sg2110
I2843
sg2111
I2422
sS'4'
I1192
sg2112
I3131
sg2113
I1050
sg2114
I505
sg2115
I507
sg2116
I595
sg2117
I1412
sg2118
I558
sg2119
I745
sg2120
I1564
sg2121
I1703
sg2122
I1547
sg2123
I2101
sg2124
I2294
sg2125
I62
sg2126
I1175
sg2127
I810
sg2128
I1512
sg2129
I2685
sg2130
I781
sg2131
I2226
sg2132
I2709
sg2133
I1683
sg2134
I2260
sg2135
I3029
sg2136
I1066
sg2137
I1304
sg2138
I2888
sg2139
I2849
sg2140
I946
sg2141
I649
sg2142
I2641
sg2143
I3014
sg2144
I1245
sg2145
I170
sg2146
I2469
sg2147
I351
sg2148
I587
sg2149
I1388
sg2150
I2930
sS'9'
I1427
sg2151
I1758
sg2152
I1488
sg2153
I1218
sg2154
I1080
sg2155
I1780
sg2156
I44
sg2157
I585
sg2158
I2089
sg2159
I2962
sg2160
I1190
sg2161
I670
sg2162
I1236
sg2163
I1187
sg2164
I318
sg2165
I966
sg2166
I2442
sg2167
I2561
sg2168
I809
sg2169
I2109
sg2170
I1219
sg2171
I2263
sg2172
I1188
sg2173
I606
sg2174
I986
sg2175
I1837
sg2176
I1601
sg2177
I2952
sg2178
I1966
sg2179
I3129
sg2180
I401
sg2181
I2870
sg2182
I2007
sg2183
I1911
sg2184
I3017
sg2185
I1139
sg2186
I782
sg2187
I1271
sg2188
I1101
sg2189
I1764
sg2190
I842
sg2191
I2270
sg2192
I2138
sg2193
I511
sg2194
I3067
sg2195
I854
sg2196
I951
sg2197
I483
sg2198
I2953
sg2199
I1086
sg2200
I1242
sg2201
I2416
sg2202
I2208
sg2203
I2000
sg2204
I1074
sg2205
I815
sg2206
I403
sg2207
I2256
sg2208
I1657
sg2209
I1164
sg2210
I114
sg2211
I2845
sg2212
I2905
sg2213
I5
sg2214
I1965
sg2215
I329
sS'd'
I500
sg2216
I1352
sg2217
I1370
sg2218
I2445
sg2219
I2225
sg2220
I542
sg2221
I1555
sg2222
I492
sg2223
I1633
sg2224
I66
sg2225
I122
sg2226
I467
sg2227
I1733
sg2228
I2865
sg2229
I251
sg2230
I1442
sg2231
I2973
sg2232
I359
sg2233
I24
sg2234
I2858
sg2235
I1876
sg2236
I849
sg2237
I1422
sg2238
I1998
sg2239
I41
sg2240
I1622
sg2241
I2812
sg2242
I1292
sg2243
I2754
sg2244
I2950
sg2245
I2298
sg2246
I129
sg2247
I1501
sg2248
I3080
sg2249
I792
sg2250
I2033
sg2251
I1287
sg2252
I163
sg2253
I1614
sg2254
I45
sg2255
I724
sg2256
I1093
sg2257
I725
sg2258
I502
sg2259
I2753
sg2260
I1746
sg2261
I1567
sg2262
I1734
sg2263
I2701
sg2264
I364
sg2265
I771
sg2266
I868
sg2267
I3050
sg2268
I218
sg2269
I1006
sg2270
I2804
sg2271
I1263
sg2272
I2917
sg2273
I2417
sg2274
I362
sg2275
I2970
sg2276
I1883
sg2277
I2466
sg2278
I2239
sg2279
I2427
sg2280
I2187
sg2281
I1795
sg2282
I42
sg2283
I2125
sg2284
I2387
sg2285
I1317
sg2286
I2372
sg2287
I1596
sg2288
I2913
sg2289
I1927
sg2290
I887
sg2291
I2770
sg2292
I1902
sg2293
I2591
sg2294
I828
sg2295
I2488
sg2296
I1038
sg2297
I1324
sg2298
I1247
sg2299
I1777
sg2300
I1971
sg2301
I1130
sg2302
I567
sg2303
I1994
sg2304
I1071
sg2305
I179
sg2306
I3018
sg2307
I248
sg2308
I2745
sg2309
I300
sg2310
I1755
sg2311
I1529
sg2312
I865
sg2313
I1923
sg2314
I1900
sg2315
I2542
sg2316
I2018
sg2317
I160
sg2318
I430
sg2319
I1775
sg2320
I270
sg2321
I979
sg2322
I1832
sg2323
I1834
sg2324
I154
sg2325
I1732
sg2326
I2071
sg2327
I756
sg2328
I2398
sg2329
I2359
sg2330
I2961
sg2331
I2050
sg2332
I907
sg2333
I1573
sg955
I1366
sg2335
I3016
sg2336
I2792
sg2337
I2601
sg2338
I3021
sg2339
I1553
sg2340
I3073
sg2341
I2126
sg2342
I2635
sg2343
I2483
sg2344
I1309
sg2345
I1256
sg2346
I471
sg2347
I1688
sg2348
I2117
sg2349
I3076
sg2350
I2929
sg2351
I1924
sg2352
I2949
sg2353
I28
sg2354
I1162
sg2355
I691
sg2356
I2867
sg2357
I420
sg2358
I1628
sg2359
I2538
sg2360
I1909
sg2361
I2764
sg2362
I127
sg2363
I2279
sg2364
I1180
sg2365
I3060
sg2366
I978
sg2367
I1195
sg2368
I2037
sg2369
I2724
sg2370
I3079
sg2371
I592
sg2372
I1716
sg2373
I46
sg2374
I704
sg2375
I3065
sg2376
I1762
sg2377
I2371
sg2378
I3002
sg2379
I826
sg2380
I2386
sg2381
I2224
sg2382
I145
sg2383
I1298
sg2384
I2472
sg2385
I1831
sg2386
I800
sg2387
I772
sg2388
I2775
sg2389
I976
sg2390
I238
sg2391
I1660
sg2392
I2908
sg2393
I1487
sg2394
I2443
sg2395
I774
sg2396
I862
sg2397
I1609
sg2398
I2032
sg2399
I2339
sg2400
I1559
sg2401
I659
sg2402
I1090
sg2403
I1403
sg2404
I383
sg2405
I1634
sg2406
I2385
sg2407
I1607
sg2408
I2052
sg2409
I547
sg2410
I1677
sg2411
I2430
sg2412
I1999
sg2413
I3103
sg2414
I208
sg2415
I1594
sg2416
I2362
sg2417
I2095
sg2418
I1862
sg2419
I1595
sg2420
I2501
sg2421
I399
sg2422
I2558
sg2423
I2621
sg2424
I288
sg2425
I1841
sg2426
I1072
sg2427
I1233
sg2428
I2791
sg2429
I2030
sg2430
I256
sg2431
I98
sg2432
I2480
sg2433
I305
sg2434
I3127
sg2435
I2588
sg2436
I2174
sg2437
I2063
sg2438
I1979
sg2439
I410
sg2440
I927
sg2441
I2123
sg2442
I2434
sg2443
I858
sg2444
I1214
sg2445
I1586
sg2446
I2058
sg2447
I1424
sg2448
I512
sg2449
I2639
sg2450
I144
sg2451
I2535
sg2452
I84
sg2453
I983
sg2454
I1103
sg2455
I1932
sg2456
I2887
sg2457
I299
sg2458
I2197
sg2459
I601
sg2460
I2282
sg2461
I1070
sg2462
I1063
sg2463
I2987
sg2464
I2613
sg2465
I530
sg2466
I146
sg2467
I2972
sg2468
I340
sg2469
I1792
sg2470
I78
sg2471
I244
sg2472
I1820
sg2473
I1551
sg2474
I1662
sg2475
I963
sg2476
I1280
sg2477
I3001
sg2478
I2516
sg2479
I2384
sg2480
I64
sg2481
I2705
sg2482
I97
sg2483
I1692
sg2484
I3099
sg2485
I452
sg2486
I497
sg2487
I2153
sg2488
I2943
sg2489
I1781
sg2490
I473
sg2491
I2183
sg2492
I400
sg2493
I2145
sg2494
I3026
sg2495
I1332
sg2496
I1912
sg2497
I1132
sg2498
I550
sg2499
I2342
sg2500
I1380
sg2501
I1526
sg2502
I1728
sS'f'
I2203
sg2503
I8
sg2504
I1578
sg2505
I2281
sg2506
I2525
sg2507
I2259
sg2508
I3101
sg2509
I135
sg2510
I2855
sg2511
I59
sg2512
I2807
sg2513
I2866
sg2514
I3023
sg2515
I1385
sg2516
I2027
sg2517
I2078
sg2518
I2381
sg2519
I1516
sg2520
I428
sg2521
I2312
sg2522
I912
sg2523
I482
sg2524
I2860
sg2525
I2406
sg2526
I673
sg2527
I1142
sg2528
I3059
sg2529
I314
sg2530
I1804
sg2531
I2179
sg2532
I304
sg2533
I1386
sg2534
I2603
sg2535
I279
sg2536
I435
sg2537
I1312
sg2538
I1330
sg2539
I382
sg2540
I2653
sg2541
I2817
sg2542
I867
sg2543
I823
sg2544
I1122
sg2545
I1944
sg2546
I1381
sg2547
I544
sg2548
I2828
sg2549
I3124
sg2550
I1367
sg2551
I889
sg2552
I1935
sg2553
I1227
sg2554
I1133
sg2555
I2502
sg2556
I522
sg2557
I1807
sg2558
I2874
sg2559
I2163
sg2560
I2727
sg2561
I524
sg2562
I1726
sg2563
I2121
sg2564
I372
sg2565
I1897
sg2566
I1082
sg2567
I1571
sg2568
I873
sg2569
I2136
sg2570
I1676
sg2571
I2036
sg2572
I2741
sg2573
I2769
sg2574
I2960
sg2575
I527
sg2576
I2348
sg2577
I1105
sg2578
I1664
sg2579
I1321
sg2580
I1854
sg2581
I124
sg2582
I3095
sg2583
I2673
sg2584
I2286
sg2585
I2806
sg2586
I1211
sg2587
I1273
sg2588
I786
sg2589
I2323
sg2590
I2300
sg2591
I650
sg2592
I67
sg2593
I296
sg2594
I3038
sg2595
I2448
sg2596
I2707
sg2597
I2984
sg2598
I2507
sg2599
I802
sg2600
I1745
sg2601
I1812
sg2602
I2556
sg2603
I2686
sg2604
I2420
sg2605
I1510
sg2606
I2004
sg2607
I1277
sg2608
I232
sg2609
I3126
sg2610
I1700
sg2611
I1813
sg2612
I1591
sg2613
I638
sg2614
I2184
sg2615
I286
sg2616
I2324
sS"'"
I1635
sg2617
I2590
sg2618
I2838
sg2619
I3092
sg2620
I1457
sg2621
I503
sg2622
I1681
sg2623
I2802
sg2624
I2242
sg2625
I2091
sg2626
I2477
sg2627
I1351
sg2628
I1904
sg2629
I2540
sg2630
I758
sg2631
I1768
sg2632
I1754
sg2633
I1110
sg2634
I2451
sg2635
I2031
sg2636
I2919
sg2637
I63
sg2638
I484
sg2639
I1961
sg2640
I2465
sg2641
I3022
sg2642
I893
sg2643
I3058
sg2644
I2787
sg2645
I110
sg2646
I1326
sg2647
I1300
sg2648
I2951
sg2649
I2029
sg2650
I2630
sg2651
I1189
sg2652
I2615
sg2653
I2393
sg2654
I2308
sg2655
I2082
sg2656
I2793
sg2657
I1471
sg2658
I1490
sg2659
I2985
sg2660
I926
sg2661
I613
sg2662
I1278
sg2663
I3132
sg2664
I1560
sg2665
I2841
sg2666
I988
sg2667
I2768
sg2668
I1869
sg2669
I285
sg2670
I2221
sg2671
I2127
sg2672
I1336
sg2673
I2649
sg2674
I1952
sg2675
I2898
sg2676
I1706
sg2677
I2160
sg2678
I1314
sg2679
I537
sg2680
I337
sg2681
I416
sg2682
I903
sg2683
I733
sg2684
I1816
sg2685
I2517
sg2686
I1731
sg2687
I1301
sg2688
I1151
sg2689
I1599
sg2690
I783
sg2691
I2545
sg2692
I1671
sg2693
I628
sg2694
I120
sg2695
I2922
sg2696
I2459
sg2697
I1951
sg2698
I55
sg2699
I108
sg2700
I1809
sg2701
I3028
sg2702
I1486
sg2703
I2075
sg2704
I884
sg2705
I2884
sg2706
I2682
sg2707
I564
sg2708
I2257
sg2709
I2193
sg2710
I1084
sg2711
I526
sg2712
I721
sg2713
I116
sg2714
I264
sg2715
I1666
sg2716
I291
sg2717
I2995
sg2718
I2352
sg2719
I2412
sg2720
I618
sg2721
I1868
sg2722
I2814
sg2723
I1896
sg2724
I2250
sg2725
I1108
sg2726
I2644
sg2727
I850
sg2728
I1974
sg2729
I2628
sg2730
I2853
sg2731
I1870
sg2732
I885
sg2733
I655
sg2734
I1116
sg2735
I1031
sg2736
I2351
sg2737
I316
sg2738
I1531
sg2739
I466
sg2740
I1268
sg2741
I710
sg2742
I1903
sg2743
I412
sg2744
I2690
sg2745
I2201
sg2746
I2589
sg2747
I1275
sg2748
I2562
sg2749
I158
sg2750
I245
sg2751
I1250
sg2752
I2885
sg2753
I2518
sg2754
I1048
sg2755
I2491
sg2756
I2492
sg2757
I981
sg2758
I703
sg2759
I3070
sg2760
I2008
sg2761
I325
sg2762
I3086
sg2763
I1032
sg2764
I1504
sg2765
I2426
sg2766
I840
sg2767
I360
sg2768
I1945
sg2769
I2668
sg2770
I1113
sg2771
I1968
sg2772
I1461
sg2773
I478
sg2774
I1860
sg2775
I2909
sg2776
I368
sg2777
I1197
sg2778
I947
sg2779
I2565
sg2780
I918
sg2781
I2481
sg2782
I2067
sg2783
I879
sg2784
I639
sg2785
I796
sg2786
I2696
sg2787
I26
sg2788
I2719
sg2789
I328
sg2790
I2497
sg2791
I2554
sg2792
I3061
sg2793
I2695
sg2794
I2823
sg2795
I2671
sg2796
I1174
sg2797
I379
sg2798
I2097
sg2799
I3040
sg2800
I2749
sg2801
I2889
sg2802
I2829
sg2803
I684
sg2804
I1873
sg2805
I311
sg2806
I1899
sg2807
I356
sg2808
I2154
sg2809
I3113
sg2810
I1372
sg2811
I1481
sg2812
I1796
sg2813
I2937
sg2814
I1119
sg2815
I2275
sg2816
I1039
sg2817
I1447
sg2818
I1396
sg2819
I2173
sg2820
I487
sg2821
I3093
sg2822
I2283
sg2823
I1462
sg2824
I1437
sg2825
I3054
sg2826
I980
sg2827
I2176
sg2828
I791
sg2829
I2110
sg2830
I1144
sg2831
I933
sg2832
I479
sg2833
I1146
sg2834
I2678
sg2835
I2762
sg2836
I1173
sg2837
I390
sg2838
I1643
sg2839
I2079
sg2840
I2038
sg2841
I406
sg2842
I1449
sg2843
I169
sg2844
I2169
sg2845
I2833
sg2846
I941
sg2847
I2572
sg2848
I1325
sg2849
I1894
sg2850
I2813
sg2851
I2285
sg2852
I805
sg2853
I1767
sg2854
I1602
sg2855
I2799
sg2856
I1390
sg2857
I1818
sg2858
I1829
sg2859
I1819
sg2860
I845
sg2861
I2178
sg2862
I2223
sg2863
I2220
sg2864
I278
sg2865
I1719
sg2866
I1503
sg2867
I2349
sg2868
I2390
sg2869
I2927
sg2870
I448
sg2871
I82
sg2872
I423
sg2873
I2436
sg2874
I2314
sg2875
I3046
sg2876
I2164
sg2877
I2374
sg2878
I3020
sg2879
I1376
sg2880
I1750
sg2881
I1600
sg2882
I491
sg2883
I1557
sg2884
I2716
sg2885
I2661
sg2886
I2728
sg2887
I662
sg2888
I455
sg2889
I2726
sg2890
I1921
sg2891
I969
sg2892
I2090
sg2893
I1196
sg2894
I1905
sg2895
I2010
sg2896
I2023
sg2897
I418
sg2898
I1022
sg2899
I1630
sg2900
I1917
sg2901
I2204
sg2902
I676
sg2903
I1713
sg2904
I2521
sg2905
I2044
sg2906
I2567
sg2907
I1401
sg2908
I660
sg2909
I709
sg2910
I442
sg2911
I1209
sg2912
I1509
sg2913
I447
sg2914
I2143
sg2915
I260
sg2916
I1290
sg2917
I1340
sg2918
I2262
sg2919
I3010
sg2920
I546
sg2921
I2140
sg2922
I1413
sg2923
I729
sg2924
I1824
sg2925
I509
sg2926
I566
sg2927
I1315
sS'i'
I1
sg2928
I553
sg2929
I210
sg2930
I1015
sg2931
I1276
sg2932
I1058
sg2933
I688
sg2934
I1769
sg2935
I1500
sg2936
I27
sg2937
I1958
sg2938
I3115
sg2939
I1160
sg2940
I250
sg2941
I1915
sg2942
I1073
sg2943
I1405
sg2944
I2077
sg2945
I462
sg2946
I2137
sg2947
I2776
sg2948
I627
sg2949
I2334
sg2950
I345
sg2951
I929
sg2952
I70
sg2953
I1593
sg2954
I3019
sg2955
I1397
sg2956
I168
sg2957
I1752
sg2958
I2722
sg2959
I1408
sg2960
I1747
sg2961
I485
sg2962
I157
sg2963
I2435
sg2964
I2755
sg2965
I2818
sg2966
I2862
sg2967
I150
sg2968
I549
sg2969
I60
sg2970
I1194
sg2971
I1068
sg2972
I750
sg2973
I1223
sg2974
I573
sg2975
I1821
sg2976
I2304
sg2977
I1007
sg2978
I102
sg2979
I518
sg2980
I752
sg2981
I3125
sg2982
I2723
sg2983
I517
sg2984
I1928
sg2985
I1651
sg2986
I779
sg2987
I869
sg2988
I971
sg2989
I301
sg2990
I1556
sg2991
I1451
sg2992
I1791
sg2993
I2607
sg2994
I1570
sg2995
I2998
sg2996
I1508
sg2997
I53
sg2998
I2721
sg2999
I1371
sg3000
I968
sg3001
I2752
sg3002
I1830
sg3003
I3036
sg3004
I2213
sg3005
I910
sg3006
I914
sg3007
I1179
sg3008
I2532
sg3009
I1118
sg3010
I1069
sg3011
I1506
sg3012
I780
sg3013
I2327
sg3014
I626
sg3015
I3068
sg3016
I2751
sg3017
I2211
sg3018
I3077
sg3019
I1297
sg3020
I2631
sg3021
I2736
sg3022
I797
sg3023
I2495
sg3024
I2068
sg3025
I275
sg3026
I2881
sg3027
I1121
sg3028
I961
sg3029
I1448
sg3030
I2345
sg3031
I2301
sg3032
I1264
sg3033
I2699
sg3034
I1738
sg3035
I2519
sg3036
I1845
sg3037
I1409
sg3038
I1076
sg3039
I892
sg3040
I1585
sg3041
I695
sg3042
I1193
sg3043
I3033
sg3044
I535
sg3045
I1538
sg3046
I2903
sg3047
I1694
sg3048
I882
sg3049
I697
sg3050
I1655
sg3051
I1689
sg3052
I12
sg3053
I2548
sg3054
I1225
sg3055
I1060
sg3056
I83
sg3057
I1478
sg3058
I853
sg3059
I348
sg3060
I463
sg3061
I803
sg3062
I352
sg3063
I2439
sg3064
I297
sg3065
I1232
sg3066
I890
sg3067
I109
sg3068
I689
sg3069
I677
sg3070
I1042
sg3071
I1199
sg3072
I2789
sg3073
I1140
sg3074
I2873
sg3075
I1709
sg3076
I2863
sg3077
I617
sg3078
I164
sg3079
I1891
sg3080
I1969
sg3081
I2515
sg3082
I1077
sg3083
I1783
sg3084
I2096
sg3085
I1270
sg3086
I2467
sg3087
I3084
sg3088
I1583
sg3089
I1307
sg3090
I2209
sg3091
I908
sg3092
I3012
sg3093
I2288
sg3094
I877
sg3095
I180
sg3096
I1148
sg3097
I2175
sg3098
I1255
sg3099
I1638
sg3100
I967
sg3101
I2642
sg3102
I2825
sg3103
I991
sg3104
I1714
sg3105
I1008
sg3106
I2045
sg3107
I1682
sg3108
I2824
sg3109
I338
sg3110
I2370
sg3111
I226
sg3112
I1669
sg3113
I851
sg3114
I623
sg3115
I3091
sg3116
I998
sg3117
I2397
sg3118
I3122
sg3119
I460
sg3120
I2852
sg3121
I1663
sg3122
I901
sg3123
I2375
sg3124
I2321
sg3125
I1134
sg3126
I1216
sg3127
I2049
ssS'_reverse_mapping'
p3130
(lp3131
g12
aS'i'
ag212
ag1112
aS'a'
ag2213
ag1496
ag1850
ag2503
ag1657
aS'6'
ag708
ag3052
ag1564
ag1626
ag81
ag1150
ag1195
ag1902
ag1169
ag113
ag1584
ag569
ag1606
ag2233
ag2100
ag2787
ag2936
ag2353
ag623
ag1200
ag547
ag1028
ag1853
ag681
ag167
ag60
ag1581
ag1103
ag577
ag617
ag2239
ag2282
ag1665
ag2156
ag2254
ag2373
ag855
ag1716
ag886
ag1234
ag1568
ag661
ag2997
ag1158
ag2698
ag1207
ag960
ag191
ag2511
ag2969
ag184
ag2125
ag2637
ag2480
ag1151
ag2224
ag2592
ag538
ag435
ag2952
ag669
ag1567
ag2081
ag568
ag454
ag1128
ag1133
ag2470
ag1921
ag1855
ag1647
ag2871
ag3056
ag2452
ag405
ag832
ag388
ag83
ag1225
ag1108
ag749
ag1183
ag1968
ag2052
ag157
ag1801
ag2482
ag2431
ag353
ag1849
ag1558
ag2978
ag1295
ag254
ag1363
ag994
ag1790
ag2699
ag3067
ag2645
ag580
ag1582
ag2051
ag2210
ag974
ag2713
ag933
ag1141
ag876
ag2694
ag527
ag2225
ag525
ag2581
ag589
ag1036
ag2362
ag1043
ag2246
ag1898
ag747
ag340
ag1492
ag1360
ag2509
ag862
ag147
ag177
ag2059
ag252
ag496
ag1451
ag1467
ag2450
ag2382
ag2466
ag1068
ag1768
ag119
ag2967
ag951
ag645
ag1690
ag2324
ag1685
ag798
ag2962
ag2749
ag250
ag2317
ag1543
ag1175
ag2252
ag3078
ag666
ag370
ag2026
ag2956
ag2843
ag2145
ag1508
ag23
ag1629
ag1522
ag1910
ag1440
ag1457
ag1755
ag2305
ag3095
ag804
ag1605
ag47
ag1871
ag639
ag443
ag1042
ag573
ag1040
ag239
ag1069
ag385
ag1060
ag85
ag72
ag868
ag1620
ag881
ag1362
ag364
ag1142
ag1778
ag223
ag176
ag750
ag2004
ag1882
ag2414
ag179
ag2929
ag64
ag1327
ag349
ag1565
ag1841
ag1552
ag1155
ag2268
ag1249
ag1008
ag2066
ag256
ag1348
ag419
ag198
ag3111
ag1684
ag1733
ag601
ag2092
ag2019
ag2608
ag1509
ag303
ag79
ag807
ag2015
ag2390
ag1702
ag137
ag728
ag1085
ag953
ag2471
ag2750
ag1802
ag2034
ag2307
ag1453
ag2940
ag2229
ag818
ag313
ag126
ag1202
ag2430
ag927
ag2048
ag1019
ag2915
ag665
ag1186
ag515
ag2714
ag1730
ag1694
ag26
ag530
ag794
ag2320
ag1994
ag586
ag615
ag90
ag3025
ag1632
ag1933
ag2864
ag2535
ag706
ag1443
ag848
ag1366
ag575
ag2669
ag2615
ag1129
ag2424
ag1397
ag840
ag2716
ag667
ag363
ag371
ag1375
ag2593
ag3064
ag911
ag2457
ag2309
ag2989
ag2093
ag1908
ag2532
ag2433
ag171
ag1619
ag969
ag791
ag360
ag2805
ag1988
ag1057
ag2529
ag1890
ag2737
ag1092
ag2164
ag823
ag1881
ag1372
ag243
ag161
ag338
ag2761
ag1513
ag730
ag2789
ag2215
ag1570
ag524
ag1673
ag1524
ag1613
ag1929
ag872
ag2680
ag3109
ag285
ag2468
ag1488
ag1135
ag916
ag45
ag2950
ag50
ag1562
ag3059
ag983
ag2014
ag2147
ag3062
ag563
ag1575
ag976
ag2807
ag1638
ag1672
ag2232
ag2767
ag1772
ag2274
ag1862
ag2264
ag751
ag1845
ag1679
ag2776
ag1258
ag979
ag1267
ag2564
ag1822
ag1805
aS'7'
ag650
ag490
ag2043
ag2797
ag78
ag441
ag2539
ag2404
ag453
ag813
ag1125
ag37
ag1212
ag2060
ag2837
ag94
ag1435
ag688
ag2018
ag1599
ag101
ag1465
ag236
ag2421
ag2492
ag2180
ag1077
ag2206
ag1455
ag1387
ag2841
ag389
ag877
ag1424
ag2439
ag135
ag2743
ag1144
ag761
ag1997
ag2681
ag1146
ag2897
ag1261
ag2357
ag1709
ag134
ag2872
ag1182
ag413
ag1835
ag545
ag2520
ag199
ag2318
ag1244
ag2030
ag1870
ag1490
ag2536
ag1335
ag262
ag474
ag1154
ag148
ag1032
ag2910
ag1013
ag124
ag1867
ag1178
ag2913
ag2870
ag1399
ag1865
ag1184
ag2485
ag973
ag328
ag2888
ag110
ag546
ag280
ag1814
ag3119
ag1989
ag2945
ag3060
ag1017
ag1711
ag2739
ag2226
aS'2'
ag958
ag870
ag2346
ag1110
ag2490
ag516
ag966
ag1280
ag950
ag2773
ag2832
ag1946
ag1566
ag2523
ag2197
ag2638
ag2961
ag1444
ag2820
ag472
ag1396
ag768
ag2882
ag2222
ag1611
ag425
ag1062
ag1275
ag2486
ag809
ag1416
aS'd'
ag1421
ag2258
ag2621
ag1104
ag2114
ag1173
ag2115
ag1533
ag2925
ag200
ag2193
ag2448
ag488
ag1413
ag585
ag605
ag2983
ag2979
ag2058
ag2108
ag1106
ag2556
ag1590
ag2561
ag914
ag2711
ag2575
ag1176
ag1813
ag2465
ag997
ag261
ag2031
ag1391
ag3044
ag780
ag2679
ag1744
ag2068
ag467
ag493
ag2220
ag773
ag2547
ag263
ag2920
ag2409
ag1857
ag2968
ag2498
ag1903
ag2083
ag2928
ag1943
ag1166
ag325
ag1278
ag2118
ag721
ag1049
ag1555
ag1203
ag2012
ag2707
ag863
ag2926
ag2302
ag752
ag1333
ag891
ag945
ag112
ag2974
ag1105
ag1939
ag105
ag181
ag247
ag273
ag1962
ag518
ag1394
ag1119
ag348
ag2157
ag1900
ag2148
ag738
ag1792
ag865
ag900
ag2371
ag1215
ag1015
ag2116
ag141
ag509
ag1095
ag1389
ag2078
ag2459
ag246
ag620
ag2053
ag691
ag2173
ag1130
ag1199
ag1412
ag1974
ag1860
ag1639
ag2661
ag948
ag2001
ag1848
ag3077
ag2720
ag1257
ag1446
ag428
ag192
ag3114
ag427
ag1637
ag3014
ag2948
ag2693
ag1432
ag1542
ag1359
ag1354
ag801
ag629
ag173
ag1536
ag264
ag2613
ag2784
ag1321
ag229
ag415
ag729
ag1993
ag465
ag1985
ag574
ag374
ag2141
ag2591
ag668
ag2010
ag1405
ag2044
ag2733
ag305
ag1012
ag1922
ag2401
ag2908
ag244
ag2887
ag1462
ag1693
ag1289
ag2094
ag1617
ag1022
ag269
ag2161
ag1698
ag1915
ag2526
ag1272
ag138
ag2902
ag3069
ag867
ag1023
ag257
ag1651
ag1250
ag1189
ag2803
ag1863
ag82
ag142
ag2933
ag3068
ag1520
ag2355
ag1437
ag1794
ag202
ag3041
ag677
ag3049
ag86
aS'5'
ag1383
ag1308
ag834
ag2758
ag2374
ag1341
ag529
ag713
ag226
ag2909
ag2741
ag1616
ag1198
ag466
ag93
ag1708
ag594
ag1134
ag1132
ag817
ag2038
ag2712
ag1221
ag634
ag2255
ag2257
ag1197
ag893
ag1020
ag2923
ag1837
ag204
ag128
ag2683
ag1305
ag1153
ag782
ag1876
ag1358
ag745
ag1232
ag498
ag1381
ag1983
ag365
ag2119
ag1259
ag290
ag1641
ag156
ag2972
ag1817
ag2980
ag335
ag1469
ag233
ag2327
ag362
ag2630
ag1002
ag2096
ag1172
ag284
ag235
aS'3'
ag1395
ag827
ag260
ag777
ag1248
ag376
ag2265
ag2387
ag723
ag2395
ag479
ag1596
ag722
ag1316
ag2986
ag3012
ag2130
ag2186
ag2690
ag1192
ag492
ag2588
ag20
ag1493
ag1505
ag1839
ag2828
ag2249
ag1636
ag1293
ag409
ag2785
ag3022
ag739
ag1046
ag2386
ag1441
ag2599
ag3061
ag2098
ag2852
ag317
ag1907
ag1980
ag2168
ag2127
ag1090
ag1541
ag643
ag1937
ag2205
ag736
ag978
ag511
ag1373
ag392
ag1263
ag1255
ag2543
ag1756
ag1861
ag2379
ag1720
ag2294
ag607
ag1458
ag210
ag591
ag1274
ag1430
ag296
ag679
ag404
ag182
ag1001
ag2766
ag1840
ag2190
ag1504
ag671
ag2860
ag2017
ag947
ag1825
ag2236
ag2727
ag3113
ag919
ag3058
ag2195
ag311
ag1676
ag790
ag2443
ag1149
ag495
ag1769
ag2396
ag734
ag1722
ag2312
ag1963
ag2542
ag2266
ag2987
aS'w'
ag1314
ag925
ag2568
ag2075
ag1935
ag1885
ag3094
ag1070
ag2783
ag125
ag1005
ag3048
ag1932
ag2704
ag2732
ag18
ag2290
ag151
ag2551
ag3066
ag1995
ag3039
ag2642
ag1883
ag84
ag1591
ag1382
ag693
ag1147
ag959
ag3122
ag1294
ag2682
ag438
aS'v'
ag116
ag2332
ag3091
ag1691
ag3005
ag399
ag2522
ag2047
ag3006
ag894
ag1299
ag288
ag2780
ag1486
ag1291
ag131
ag548
ag1320
ag528
ag1187
ag2660
ag2440
ag1427
ag2951
ag1073
ag532
ag1506
ag2831
ag281
ag1798
ag487
ag2021
ag657
ag2101
ag1710
ag2846
ag1313
ag1545
ag304
ag343
ag2140
ag2778
ag1914
ag918
ag29
ag2196
ag988
ag786
ag1201
ag1188
ag1941
ag1111
ag1426
ag1222
ag802
ag3028
ag2033
ag2475
ag1757
ag39
ag2165
ag3100
ag3000
ag2891
ag315
ag2988
ag1045
ag1418
ag1484
ag613
ag2389
ag1594
ag2366
ag2321
ag2826
ag2757
ag420
ag2453
ag121
ag477
ag2174
ag898
ag2666
ag1675
ag758
ag3103
ag1048
ag1821
ag967
ag985
ag411
ag888
ag3116
ag1851
ag1999
ag742
ag482
ag989
ag1018
ag743
ag2269
ag2977
ag3105
ag1452
ag237
ag1450
ag382
ag278
ag920
ag2930
ag1091
ag1079
ag1788
ag1759
ag740
ag2072
ag2898
ag1905
ag1007
ag1266
ag682
ag383
ag255
ag1072
ag595
ag2735
ag2763
ag1953
ag2334
ag632
ag406
ag1219
ag2296
ag2816
ag102
ag1483
ag3070
ag513
ag1530
ag1518
ag1507
ag646
ag2754
ag655
ag2113
ag735
ag1748
ag1328
ag1785
ag468
ag129
ag961
ag2932
ag842
ag3055
ag698
ag25
ag2462
ag1239
ag1403
ag2136
ag1477
ag2971
ag3010
ag2461
ag2304
ag2426
ag2942
ag2204
aS'1'
ag3038
ag3082
ag1697
ag814
ag2154
ag810
ag2566
ag1174
ag2710
ag701
ag2199
ag2011
ag107
ag1942
ag2402
ag320
ag327
ag2256
ag215
ag61
ag526
ag1059
ag63
ag1171
ag2028
ag2188
ag1116
ag2454
ag458
ag2577
ag115
ag150
ag2725
ag660
ag2633
ag1159
ag609
ag2770
ag604
ag450
ag2734
ag866
ag3009
ag2814
ag36
ag3027
ag2544
ag1852
ag861
ag1371
ag1242
ag2029
ag648
ag372
ag2301
ag203
ag2497
ag2554
ag3125
ag781
ag111
ag2067
ag1677
ag2185
ag3073
ag506
ag2527
ag536
ag2830
ag1083
ag2833
ag1560
ag3096
ag578
ag410
ag2688
ag2077
ag597
ag1448
ag1024
ag1667
ag1965
ag309
ag1800
ag2939
ag1879
ag2354
ag624
ag2209
ag298
ag732
ag522
ag654
ag551
ag792
ag1162
ag486
ag2836
ag2796
ag2126
ag564
ag1014
ag1625
ag3007
ag2364
ag603
ag501
ag292
ag1622
ag1319
ag1386
ag2163
ag2172
ag2651
ag2160
ag347
aS'4'
ag3042
ag2970
ag2367
ag2893
ag2777
ag175
ag3071
ag1598
ag1628
ag1514
ag957
ag1897
ag98
ag1586
ag963
ag1160
ag2911
ag1877
ag2586
ag1425
ag676
ag2444
ag1164
ag3126
ag697
ag2153
ag2170
ag561
ag1277
ag1951
ag2973
ag1436
ag3054
ag187
ag2553
ag1136
ag1115
ag1216
ag52
ag3065
ag2427
ag1460
ag690
ag2162
ag926
ag1038
ag1618
ag795
ag302
ag2200
ag1827
ag880
ag2144
ag1223
ag2298
ag991
ag2045
ag2751
ag1975
ag1167
ag718
ag1304
ag3098
ag2345
ag160
ag1547
ag95
ag1527
ag1283
ag103
ag2271
ag3032
ag159
ag57
ag1779
ag2740
ag504
ag3085
ag2187
ag1423
ag2587
ag306
ag2747
ag2931
ag2607
ag2662
ag2073
ag2476
ag1528
ag641
ag805
ag986
ag1750
ag1996
ag2251
ag1138
ag1499
ag2916
ag1510
ag2242
ag469
ag2087
ag54
ag628
ag3019
ag2383
ag330
ag2647
ag2687
ag241
ag1804
ag2137
ag1282
ag1439
ag3089
ag1217
ag2344
ag1990
ag1143
ag2537
ag727
ag2678
ag2927
ag1810
ag2285
ag542
ag350
ag430
ag2579
ag1809
ag908
ag2297
ag2848
ag2646
ag1894
ag1763
ag2105
ag2538
ag981
ag2495
ag982
aS'8'
ag1011
ag2672
ag1145
aS'u'
aS'm'
ag2917
ag1758
ag656
ag1604
ag1393
ag1088
ag1407
ag1526
ag1889
ag902
ag1671
ag2627
ag2216
ag1163
ag444
ag1592
ag744
ag400
ag774
ag754
ag1843
ag928
ag1243
ag1854
ag1229
ag1479
ag955
ag2550
ag576
ag1246
ag2217
ag2999
ag2810
ag1828
ag76
ag51
ag2879
ag709
ag1712
ag390
ag2500
ag2546
ag99
ag887
ag75
ag2515
ag2533
ag1179
ag2149
ag971
ag2856
ag294
ag1557
ag429
ag218
ag345
ag2818
ag2955
ag1875
ag1820
ag588
ag2907
ag572
ag2403
ag470
ag2943
ag1463
ag1998
ag2959
ag3037
ag716
ag2006
ag2117
ag2922
ag1577
ag1572
ag1326
ag164
ag999
ag379
ag1747
ag1652
ag2237
ag21
ag2447
ag332
ag507
aS'9'
ag1699
ag556
ag1190
ag844
ag481
ag1666
ag366
ag1724
ag1067
ag2824
ag689
ag1546
ag772
ag987
ag2230
ag1004
ag146
ag1600
ag41
ag2817
ag3029
ag2842
ag1220
ag2991
ag1735
ag318
ag153
ag373
ag2064
ag2620
ag1777
ag825
ag289
ag2772
ag2823
ag1948
ag787
ag1920
ag1210
ag1797
ag1027
ag334
ag931
ag2657
ag899
ag779
ag1732
ag398
ag312
ag1420
ag3057
ag1701
ag1035
ag2811
ag46
ag1603
ag1006
ag1468
ag2702
ag2393
ag2152
ag715
ag2658
ag517
ag1573
ag1374
ag395
ag1952
ag828
ag2061
ag337
ag901
ag2935
ag2247
ag1039
ag2866
ag2764
ag1642
ag3011
ag760
ag2996
ag2912
ag2605
ag1588
ag2128
ag234
ag446
ag1532
ag2519
ag653
ag1369
ag1682
ag225
ag19
ag2002
ag1331
ag1646
ag910
ag2501
ag942
ag1051
ag2311
ag456
ag2738
ag1949
ag1140
ag1303
ag403
ag537
ag1687
ag3045
ag2070
ag1664
ag1307
ag889
ag687
ag1041
ag1743
ag819
ag2122
ag965
ag1474
ag685
ag2473
ag1967
ag2339
ag1981
ag2221
ag2990
ag2883
ag633
ag2400
ag2664
ag1544
ag558
ag447
ag2120
ag1847
ag847
ag2261
ag831
ag1612
ag2994
ag2567
ag1434
ag2333
ag1124
aS's'
aS'o'
ag553
ag2504
ag77
ag1218
ag445
ag1236
ag3088
ag1746
ag3040
ag2445
ag1417
ag508
ag1094
ag2085
ag2612
ag2013
ag2953
ag2415
ag2419
ag2287
ag692
ag614
ag2689
ag2881
ag2176
ag2854
ag785
ag1578
ag499
ag1812
ag2407
ag1265
ag2397
ag321
ag1168
ag775
ag533
ag2253
ag359
ag201
ag1071
ag1525
ag421
ag845
ag416
ag2240
ag316
ag1003
aS'x'
ag1978
ag1388
ag2358
ag2103
ag2899
ag2037
ag1456
ag2223
ag2405
aS"'"
ag1185
ag1445
ag3099
ag2039
ag274
ag1361
ag1609
ag2838
ag837
ag719
ag1323
ag1021
ag59
ag1739
ag232
ag2985
ag282
ag1661
ag158
ag3050
ag1878
ag2208
ag1298
ag1579
ag2391
ag2095
ag2474
ag3121
ag2578
ag475
ag2715
ag217
ag1553
ag3112
ag196
ag2692
ag140
ag28
ag1826
ag139
ag2570
ag2410
ag1669
ag1816
ag1930
ag2622
ag3107
ag2133
ag1378
ag512
ag1561
ag1815
ag2347
ag3051
ag2089
ag996
ag2483
ag1241
ag3047
ag883
ag884
ag849
ag1725
ag1928
ag2610
ag567
ag418
ag2121
ag1884
ag1653
ag2676
ag1936
ag1918
ag3075
ag219
ag136
ag1204
ag2903
ag3104
ag1093
ag2372
ag494
ag1958
ag2865
ag1165
ag1836
ag2104
ag1718
ag73
ag924
ag2562
ag1991
ag2502
ag1700
ag835
ag2686
ag2325
ag2227
ag2262
ag1782
ag913
ag1054
ag3034
ag555
ag1284
ag460
ag117
ag571
ag1318
ag2600
ag2260
ag2960
ag1338
ag808
ag2880
ag510
ag2957
ag1205
ag2632
ag2310
ag907
ag1047
ag2151
ag361
ag523
ag1268
ag2376
ag341
ag2189
ag1065
ag1082
ag2853
ag2631
ag2934
ag1607
ag1727
ag1806
ag2079
ag162
ag2319
ag1447
ag2299
ag540
ag1753
ag2155
ag2489
ag266
ag3083
ag287
ag2000
ag929
ag1368
ag1264
ag1191
ag2076
ag2992
ag2469
ag463
ag66
ag2281
ag2812
ag2057
ag1668
ag1973
ag1233
ag1538
ag483
ag897
ag2530
ag1404
ag1390
ag2557
ag2091
ag2700
ag1954
ag896
ag2601
ag2611
ag2041
ag892
ag2684
ag1066
ag2857
ag2859
ag2472
ag2975
ag245
ag800
ag2924
ag1601
ag1025
ag268
ag1961
ag2858
ag3002
ag2385
ag2322
ag871
ag2323
ag1766
ag357
ag2175
ag1589
ag2084
ag549
ag2425
ag402
ag811
ag857
ag3036
ag1517
ag1076
ag322
ag355
ag375
ag1597
ag854
ag1923
ag2580
ag1422
ag133
ag2040
ag636
ag592
ag2774
ag1485
ag2418
ag1823
ag339
ag1880
ag49
ag377
ag2721
ag2668
ag2731
ag1087
ag1074
ag2804
ag1033
ag1312
ag2235
ag44
ag977
ag1206
ag1719
ag2027
ag143
ag2276
ag91
ag32
ag206
ag109
ag748
ag231
ag1400
ag3079
ag1355
ag557
ag2849
ag1556
ag2723
ag2565
ag767
ag2806
ag2314
ag1419
ag2292
ag2742
ag2628
ag2894
ag878
ag1608
ag193
ag2360
ag1495
ag2183
ag2496
ag414
ag829
ag2941
ag1279
ag2900
ag1869
ag253
ag1064
ag2890
ag455
ag2313
ag2351
ag1695
ag1859
ag2289
ag2984
ag1271
ag1762
ag1055
ag2455
ag637
ag912
ag2552
ag599
ag1494
ag694
ag1429
ag674
ag1539
ag980
ag1026
ag2545
ag2768
ag1081
ag1339
ag841
ag778
ag58
ag2697
ag2674
ag1554
ag1737
ag696
ag211
ag1346
ag2937
ag1302
ag1476
ag2639
ag616
ag1376
ag968
ag2214
ag2178
ag625
ag2771
ag3080
ag442
ag2300
ag168
ag1803
ag2728
ag314
ag1846
ag906
ag619
ag2438
ag1237
ag1982
ag858
ag1688
ag286
ag1336
ag491
ag1874
ag1940
ag1569
ag1650
ag1707
ag2071
ag1931
ag2303
ag1329
ag1729
ag92
ag2238
ag2412
ag2203
ag1971
ag672
ag1315
ag2606
ag100
ag1683
ag2182
ag2760
ag2025
ag2895
ag1630
ag621
ag106
ag915
ag308
ag1670
ag1977
ag2316
ag1742
ag640
ag1251
ag30
ag2896
ag1781
ag1913
ag1438
ag2516
ag1123
ag2649
ag2429
ag2635
ag2398
ag2250
ag543
ag770
ag2571
ag2368
ag2840
ag552
ag1888
ag1787
ag539
ag1459
ag2905
ag3106
ag1044
ag890
ag1770
ag3127
ag2331
ag248
ag2408
ag424
ag1224
ag457
ag1864
ag1799
ag2446
ag1529
ag1324
ag949
ag1498
ag2437
ag1643
ag1478
ag70
ag2782
ag3024
ag771
ag1322
ag2326
ag1979
ag35
ag1325
ag2703
ag873
ag2944
ag2517
ag2839
ag1126
ag1614
ag2655
ag240
ag1976
ag2023
ag1384
ag1523
ag473
ag2158
ag2892
ag2625
ag631
ag24
ag1662
ag2417
ag3084
ag2798
ag851
ag195
ag756
ag2123
ag1349
ag478
ag833
ag550
ag559
ag1944
ag489
ag2169
ag2829
ag1214
ag1610
ag796
ag2090
ag1704
ag741
ag2348
ag938
ag930
ag611
ag2563
ag1058
ag2441
ag1754
ag2283
ag2341
ag2671
ag1089
ag1411
ag228
ag1286
ag293
ag726
ag69
ag1097
ag2569
ag2946
ag2192
ag1764
ag2921
ag879
ag769
ag2914
ag368
ag2493
ag1472
ag1895
ag1512
ag1680
ag1061
ag1170
ag1633
ag2487
ag2808
ag1276
ag1350
ag423
ag352
ag1696
ag2677
ag2016
ag1917
ag2559
ag2876
ag1829
ag1406
ag1053
ag1873
ag2844
ag1101
ag2074
ag48
ag2819
ag2436
ag3097
ag2827
ag765
ag2861
ag2531
ag502
ag1705
ag1901
ag2491
ag2614
ag431
ag1654
ag2280
ag1491
ag369
ag1208
ag670
ag1177
ag2709
ag1481
ag702
ag1009
ag2458
ag209
ag1858
ag1161
ag2745
ag843
aS'f'
ag2901
ag297
ag1414
ag1585
ag2202
ag3090
ag393
ag3017
ag1415
ag3004
ag1635
ag1535
ag381
ag1262
ag462
ag271
ag2863
ag2670
ag1410
ag2862
ag2381
ag2219
ag2131
ag680
ag1738
ag1297
ag214
ag984
ag461
ag1408
ag783
ag440
ag1379
ag755
ag1227
ag2278
ag705
ag277
ag2624
ag1148
ag249
ag737
ag1442
ag803
ag1252
ag649
ag2724
ag1364
ag1253
ag1343
ag905
ag1640
ag2207
ag2708
ag33
ag2507
ag2134
ag344
ag2918
ag2171
ag1717
ag1098
ag397
ag658
ag172
ag903
ag2191
ag275
ag1050
ag519
ag384
ag2815
ag1385
ag448
ag1292
ag2363
ag836
ag2505
ag2460
ag2822
ag1741
ag2851
ag2584
ag1107
ag3093
ag1796
ag238
ag476
ag720
ag1678
ag2124
ag1180
ag707
ag1648
ag2245
ag1602
ag2590
ag3031
ag1984
ag216
ag2976
ag1970
ag1157
ag2009
ag2654
ag635
ag838
ag185
ag2521
ag1992
ag2874
ag1824
ag2049
ag644
ag300
ag391
ag935
ag3124
ag500
ag2589
ag2616
ag123
ag993
ag3013
ag895
ag319
ag1728
ag1152
ag1245
ag1471
ag2949
ag1887
ag1745
ag1934
ag242
ag2399
ag1904
ag451
ag2499
ag1761
ag763
ag3030
ag711
ag2050
ag2576
ag2867
ag22
ag2736
ag2718
ag132
ag962
ag432
ag1760
ag1624
ag1340
ag2329
ag1117
ag367
ag2416
ag122
ag1583
ag850
ag652
ag869
ag1791
ag764
ag3110
ag2377
ag2286
ag1311
ag2877
ag3123
ag1334
ag1774
ag972
ag1392
ag452
ag2518
ag1906
ag1511
ag2479
ag2406
ag2380
ag2284
ag1193
ag1196
ag2868
ag1563
ag2022
ag2653
ag120
ag1776
ag220
ag3117
ag2328
ag923
ag1868
ag1515
ag1260
ag55
ag434
ag941
ag2525
ag2003
ag1100
ag1016
ag1959
ag917
ag2719
ag820
ag188
ag67
ag2201
ag2273
ag71
ag1663
ag2604
ag190
ag2111
ag1721
ag342
ag408
ag2765
ag2279
ag638
ag1842
ag2411
ag596
ag34
ag310
ag2442
ag2963
ag2873
ag2007
ag505
ag3063
ag1645
aS'q'
ag2166
ag2394
ag1893
ag2218
ag1659
ag1428
ag2595
ag276
ag1211
ag2634
ag1595
ag1987
ag221
ag1938
ag396
ag2063
ag566
ag2696
ag673
ag1254
ag821
ag1501
ag1909
ag2640
ag2277
ag3086
ag2106
ag2146
ag1656
ag700
ag2384
ag480
ag1807
ag520
ag2032
ag2626
ag1370
ag1950
ag2432
ag2781
ag1480
ag2343
ag1559
ag1723
ag1352
ag386
ag2295
ag954
ag2069
ag2755
ag2756
ag724
ag1534
ag3023
ag1502
ag2790
ag1571
ag1899
ag712
ag2420
ag2555
ag826
ag1615
ag351
ag1247
ag2598
ag1516
ag1966
ag1377
ag1433
ag170
ag503
ag283
ag3081
ag2478
ag2685
ag2753
ag3035
ag1056
ag2904
ag439
ag272
ag1367
ag2506
ag1209
ag1593
ag1773
ag154
ag174
ag2054
ag3008
ag1644
ag1649
ag2451
ag87
ag197
ag2359
ag127
ag2629
ag1574
ag2315
ag1833
ag1896
ag2691
ag258
ag860
ag3053
ag1832
ag1838
ag2082
ag1703
ag570
ag2791
ag1947
ag2602
ag1550
ag2422
ag1503
ag2109
ag2167
ag2748
ag1892
ag1537
ag2779
ag1784
ag2906
ag114
ag1228
ag1431
ag1466
ag2847
ag1986
ag259
ag859
ag155
ag815
ag1956
ag602
ag874
ag426
ag1713
ag944
ag251
ag1818
ag108
ag208
ag2435
ag2746
ag2617
ag2293
ag53
ag1213
ag943
ag940
ag378
ag1287
ag812
ag42
ag333
ag2337
ag937
ag2534
ag664
ag180
ag1240
ag2993
ag1317
ag130
ag1674
ag1634
ag1337
ag2464
ag535
ag2652
ag2055
ag714
ag1137
ag921
ag299
ag2423
ag864
ag279
ag797
ag731
ag1226
ag1099
ag2729
ag1114
ag2650
ag3020
ag852
ag1454
ag484
ag2342
ag1102
ag1955
ag1783
ag2449
ag1113
ag2142
ag3101
ag1734
ag2726
ag1075
ag514
ag31
ag178
ag2673
ag417
ag189
ag541
ag2540
ag323
ag1830
aS'n'
ag662
ag521
ag1765
ag27
ag2885
ag1500
ag1789
ag1118
ag856
ag684
ag939
ag2769
ag331
ag1786
ag2795
ag449
ag2583
ag1793
ag2008
ag1726
ag612
ag2834
ag1872
ag766
ag152
ag2706
ag62
ag169
ag2129
ag2603
ag1181
ag1332
ag356
ag2744
ag165
ag1831
ag1109
ag1808
ag2793
ag2786
ag584
ag407
ag3033
ag626
ag2263
ag459
ag1911
ag295
ag2481
ag88
ag2596
ag68
ag2132
ag1365
ag1531
ag194
ag1587
ag1238
ag1736
ag2884
ag678
ag630
ag2788
ag975
ag2998
ag2958
ag2982
ag2369
ag1548
ag2889
ag2560
ag2886
ag710
ag1398
ag1230
ag1686
ag2036
ag699
ag582
ag3021
ag1194
ag970
ag1285
ag675
ag2572
ag230
ag932
ag2086
ag2308
ag1309
ag1037
ag1631
ag2800
ag1288
ag3016
ag3001
ag2259
ag2243
ag2964
ag1834
ag683
ag882
ag806
ag647
ag875
ag2835
ag1029
ag2361
ag1231
ag822
ag990
ag2667
ag2573
ag2291
ag1270
ag324
ag1122
ag1475
ag2388
ag2947
ag97
ag554
ag1273
ag1031
ag1380
ag1127
ag587
ag992
ag2102
ag922
ag2644
ag1086
ag3072
ag1310
ag2428
ag2336
ag2656
ag1487
ag485
ag1957
ag1351
ag1156
ag2855
ag1521
ag2042
ag2623
ag1030
ag2270
ag1689
ag2585
ag2512
ag1926
ag1449
ag394
ag1096
ag2241
ag2850
ag2722
ag1795
ag562
ag2541
ag2965
ag663
ag733
ag1306
ag471
ag2794
ag3108
ag3102
ag789
ag1344
ag2548
ag2802
ag267
ag1945
ag776
ag2845
ag686
ag207
ag909
ag43
ag2618
ag1623
ag224
ag2665
ag1621
ag2110
ag753
ag2211
ag1281
ag1856
ag1740
ag2139
ag2024
ag1235
ag3120
ag2730
ag608
ag2510
ag387
ag2056
ag2234
ag1139
ag2524
ag2035
ag2966
ag3076
ag1924
ag2228
ag2513
ag2356
ag1919
ag1300
ag2181
ag205
ag1497
ag3074
ag2558
ag40
ag952
ag853
ag1660
ag1347
ag1775
ag3026
ag1819
ag1121
ag2705
ag2752
ag1706
ag2456
ag2138
ag2801
ag1010
ag531
ag998
ag1549
ag1752
ag816
ag757
ag1000
ag2675
ag784
ag1969
ag946
ag1751
ag3046
ag1401
ag2212
ag2005
ag1470
ag2392
ag2775
ag717
ag788
ag1034
ag2288
ag964
ag1580
ag839
ag2272
ag762
ag2636
ag846
ag2097
ag2695
ag995
ag622
ag1780
ag583
ag2869
ag2062
ag2350
ag2150
ag412
ag1540
ag1078
ag166
ag606
ag1084
ag2813
ag799
ag600
ag1964
ag651
ag642
ag2488
ag144
ag1290
ag149
ag1482
ag534
ag2352
ag2244
ag2648
ag2177
ag2198
ag307
ag824
ag759
ag1473
ag703
aS'r'
ag2574
ag2330
ag2159
ag904
ag1866
ag956
ag1655
ag1402
ag2107
ag2020
ag2275
ag581
ag2467
ag2231
ag163
ag1891
ag1356
ag1519
ag1409
ag1771
ag1080
ag936
ag183
ag401
ag2597
ag2659
ag885
ag2463
ag2065
ag422
ag1811
ag1692
ag618
ag213
ag1461
ag2717
ag1052
ag610
ag2995
ag145
ag1960
ag2477
ag2378
ag1886
ag265
ag1714
ag301
ag695
ag565
ag2099
ag2919
ag1464
ag3092
ag746
ag2143
ag1844
ag2335
ag2184
ag2306
ag2954
ag2878
ag2338
ag2641
ag2514
ag1731
ag497
ag2494
ag74
ag2701
ag2135
ag104
ag227
ag704
ag3043
ag579
ag80
ag3003
ag1749
ag2594
ag1120
ag2799
ag1972
ag1489
ag2080
ag590
ag38
ag2875
ag1715
ag1330
ag354
ag2267
ag544
ag222
ag725
ag2825
ag627
ag830
ag65
ag2643
ag2528
ag2365
ag2792
ag1342
ag336
ag326
ag2375
ag1296
ag2194
ag3015
ag560
ag2759
ag56
ag186
ag2340
ag1576
ag1627
ag2349
ag3018
ag659
ag2370
ag2248
ag1131
ag436
ag89
ag3087
ag1925
ag2762
ag96
ag329
ag346
ag593
ag3115
ag2619
ag2821
ag1269
ag2582
ag1345
ag118
ag291
ag2484
ag1927
ag2508
ag1767
ag2413
ag380
ag2046
ag934
ag1357
ag358
ag1916
ag437
ag433
ag1658
ag2809
ag270
ag2938
ag598
ag2088
ag1681
ag1063
ag793
ag1353
ag3118
ag1551
ag2549
ag2981
ag2609
ag2434
ag1256
ag2179
ag1301
ag2112
ag2663
ag464
ag1912
asbsS'max_document_length'
p3132
I98
sS'_tokenizer'
p3133
ctensorflow.contrib.learn.python.learn.preprocessing.text
tokenizer
p3134
sS'min_frequency'
p3135
I0
sb.